
qr.o:     file format elf32-littleriscv


Disassembly of section .text:

00010094 <exit>:
   10094:	ff010113          	addi	sp,sp,-16
   10098:	00000593          	li	a1,0
   1009c:	00812423          	sw	s0,8(sp)
   100a0:	00112623          	sw	ra,12(sp)
   100a4:	00050413          	mv	s0,a0
   100a8:	3f5010ef          	jal	11c9c <__call_exitprocs>
   100ac:	f181a783          	lw	a5,-232(gp) # 248f0 <__stdio_exit_handler>
   100b0:	00078463          	beqz	a5,100b8 <exit+0x24>
   100b4:	000780e7          	jalr	a5
   100b8:	00040513          	mv	a0,s0
   100bc:	4e00c0ef          	jal	1c59c <_exit>

000100c0 <register_fini>:
   100c0:	00000793          	li	a5,0
   100c4:	00078863          	beqz	a5,100d4 <register_fini+0x14>
   100c8:	00016537          	lui	a0,0x16
   100cc:	2d050513          	addi	a0,a0,720 # 162d0 <__libc_fini_array>
   100d0:	5010106f          	j	11dd0 <atexit>
   100d4:	00008067          	ret

000100d8 <_start>:
   100d8:	00015197          	auipc	gp,0x15
   100dc:	90018193          	addi	gp,gp,-1792 # 249d8 <__global_pointer$>
   100e0:	f1818513          	addi	a0,gp,-232 # 248f0 <__stdio_exit_handler>
   100e4:	24418613          	addi	a2,gp,580 # 24c1c <__BSS_END__>
   100e8:	40a60633          	sub	a2,a2,a0
   100ec:	00000593          	li	a1,0
   100f0:	245010ef          	jal	11b34 <memset>
   100f4:	00002517          	auipc	a0,0x2
   100f8:	cdc50513          	addi	a0,a0,-804 # 11dd0 <atexit>
   100fc:	00050863          	beqz	a0,1010c <_start+0x34>
   10100:	00006517          	auipc	a0,0x6
   10104:	1d050513          	addi	a0,a0,464 # 162d0 <__libc_fini_array>
   10108:	4c9010ef          	jal	11dd0 <atexit>
   1010c:	18d010ef          	jal	11a98 <__libc_init_array>
   10110:	00012503          	lw	a0,0(sp)
   10114:	00410593          	addi	a1,sp,4
   10118:	00000613          	li	a2,0
   1011c:	755000ef          	jal	11070 <main>
   10120:	f75ff06f          	j	10094 <exit>

00010124 <__do_global_dtors_aux>:
   10124:	ff010113          	addi	sp,sp,-16
   10128:	00812423          	sw	s0,8(sp)
   1012c:	f381c783          	lbu	a5,-200(gp) # 24910 <completed.1>
   10130:	00112623          	sw	ra,12(sp)
   10134:	02079263          	bnez	a5,10158 <__do_global_dtors_aux+0x34>
   10138:	00000793          	li	a5,0
   1013c:	00078a63          	beqz	a5,10150 <__do_global_dtors_aux+0x2c>
   10140:	00024537          	lui	a0,0x24
   10144:	11450513          	addi	a0,a0,276 # 24114 <__EH_FRAME_BEGIN__>
   10148:	00000097          	auipc	ra,0x0
   1014c:	000000e7          	jalr	zero # 0 <exit-0x10094>
   10150:	00100793          	li	a5,1
   10154:	f2f18c23          	sb	a5,-200(gp) # 24910 <completed.1>
   10158:	00c12083          	lw	ra,12(sp)
   1015c:	00812403          	lw	s0,8(sp)
   10160:	01010113          	addi	sp,sp,16
   10164:	00008067          	ret

00010168 <frame_dummy>:
   10168:	00000793          	li	a5,0
   1016c:	00078c63          	beqz	a5,10184 <frame_dummy+0x1c>
   10170:	00024537          	lui	a0,0x24
   10174:	f3c18593          	addi	a1,gp,-196 # 24914 <object.0>
   10178:	11450513          	addi	a0,a0,276 # 24114 <__EH_FRAME_BEGIN__>
   1017c:	00000317          	auipc	t1,0x0
   10180:	00000067          	jr	zero # 0 <exit-0x10094>
   10184:	00008067          	ret

00010188 <qr_getdot>:
   10188:	fe010113          	addi	sp,sp,-32
   1018c:	00812e23          	sw	s0,28(sp)
   10190:	02010413          	addi	s0,sp,32
   10194:	fea42623          	sw	a0,-20(s0)
   10198:	feb42423          	sw	a1,-24(s0)
   1019c:	fec42223          	sw	a2,-28(s0)
   101a0:	fec42703          	lw	a4,-20(s0)
   101a4:	fe442783          	lw	a5,-28(s0)
   101a8:	00279793          	slli	a5,a5,0x2
   101ac:	00f707b3          	add	a5,a4,a5
   101b0:	00c7a703          	lw	a4,12(a5)
   101b4:	fe842783          	lw	a5,-24(s0)
   101b8:	00f717b3          	sll	a5,a4,a5
   101bc:	01f7d793          	srli	a5,a5,0x1f
   101c0:	00f037b3          	snez	a5,a5
   101c4:	0ff7f793          	zext.b	a5,a5
   101c8:	00078513          	mv	a0,a5
   101cc:	01c12403          	lw	s0,28(sp)
   101d0:	02010113          	addi	sp,sp,32
   101d4:	00008067          	ret

000101d8 <_init_bmp>:
   101d8:	fd010113          	addi	sp,sp,-48
   101dc:	02812623          	sw	s0,44(sp)
   101e0:	03010413          	addi	s0,sp,48
   101e4:	fca42e23          	sw	a0,-36(s0)
   101e8:	fcb42c23          	sw	a1,-40(s0)
   101ec:	fdc42783          	lw	a5,-36(s0)
   101f0:	01878793          	addi	a5,a5,24
   101f4:	fe000737          	lui	a4,0xfe000
   101f8:	00e7a023          	sw	a4,0(a5)
   101fc:	0007a703          	lw	a4,0(a5)
   10200:	fdc42783          	lw	a5,-36(s0)
   10204:	00e7a023          	sw	a4,0(a5)
   10208:	fdc42783          	lw	a5,-36(s0)
   1020c:	01478793          	addi	a5,a5,20
   10210:	82000737          	lui	a4,0x82000
   10214:	00e7a023          	sw	a4,0(a5)
   10218:	fdc42703          	lw	a4,-36(s0)
   1021c:	00470713          	addi	a4,a4,4 # 82000004 <__BSS_END__+0x81fdb3e8>
   10220:	0007a783          	lw	a5,0(a5)
   10224:	00f72023          	sw	a5,0(a4)
   10228:	fdc42783          	lw	a5,-36(s0)
   1022c:	01078713          	addi	a4,a5,16
   10230:	ba0007b7          	lui	a5,0xba000
   10234:	00f72023          	sw	a5,0(a4)
   10238:	fdc42783          	lw	a5,-36(s0)
   1023c:	00c78793          	addi	a5,a5,12 # ba00000c <__BSS_END__+0xb9fdb3f0>
   10240:	00072703          	lw	a4,0(a4)
   10244:	00e7a023          	sw	a4,0(a5)
   10248:	fdc42703          	lw	a4,-36(s0)
   1024c:	00870713          	addi	a4,a4,8
   10250:	0007a783          	lw	a5,0(a5)
   10254:	00f72023          	sw	a5,0(a4)
   10258:	fe042623          	sw	zero,-20(s0)
   1025c:	0900006f          	j	102ec <_init_bmp+0x114>
   10260:	fec42783          	lw	a5,-20(s0)
   10264:	00279793          	slli	a5,a5,0x2
   10268:	fdc42703          	lw	a4,-36(s0)
   1026c:	00f70733          	add	a4,a4,a5
   10270:	fec42783          	lw	a5,-20(s0)
   10274:	fd842683          	lw	a3,-40(s0)
   10278:	40f687b3          	sub	a5,a3,a5
   1027c:	fff78793          	addi	a5,a5,-1
   10280:	00279793          	slli	a5,a5,0x2
   10284:	fdc42683          	lw	a3,-36(s0)
   10288:	00f687b3          	add	a5,a3,a5
   1028c:	00072703          	lw	a4,0(a4)
   10290:	00e7a023          	sw	a4,0(a5)
   10294:	fec42783          	lw	a5,-20(s0)
   10298:	00279793          	slli	a5,a5,0x2
   1029c:	fdc42703          	lw	a4,-36(s0)
   102a0:	00f707b3          	add	a5,a4,a5
   102a4:	0007a683          	lw	a3,0(a5)
   102a8:	fec42783          	lw	a5,-20(s0)
   102ac:	00279793          	slli	a5,a5,0x2
   102b0:	fdc42703          	lw	a4,-36(s0)
   102b4:	00f707b3          	add	a5,a4,a5
   102b8:	0007a703          	lw	a4,0(a5)
   102bc:	fd842783          	lw	a5,-40(s0)
   102c0:	ff978793          	addi	a5,a5,-7
   102c4:	00f75733          	srl	a4,a4,a5
   102c8:	fec42783          	lw	a5,-20(s0)
   102cc:	00279793          	slli	a5,a5,0x2
   102d0:	fdc42603          	lw	a2,-36(s0)
   102d4:	00f607b3          	add	a5,a2,a5
   102d8:	00e6e733          	or	a4,a3,a4
   102dc:	00e7a023          	sw	a4,0(a5)
   102e0:	fec42783          	lw	a5,-20(s0)
   102e4:	00178793          	addi	a5,a5,1
   102e8:	fef42623          	sw	a5,-20(s0)
   102ec:	fec42703          	lw	a4,-20(s0)
   102f0:	00600793          	li	a5,6
   102f4:	f6e7d6e3          	bge	a5,a4,10260 <_init_bmp+0x88>
   102f8:	fdc42783          	lw	a5,-36(s0)
   102fc:	01878793          	addi	a5,a5,24
   10300:	0007a683          	lw	a3,0(a5)
   10304:	fdc42783          	lw	a5,-36(s0)
   10308:	01878793          	addi	a5,a5,24
   1030c:	00aab737          	lui	a4,0xaab
   10310:	80070713          	addi	a4,a4,-2048 # aaa800 <__BSS_END__+0xa85be4>
   10314:	00e6e733          	or	a4,a3,a4
   10318:	00e7a023          	sw	a4,0(a5)
   1031c:	00900793          	li	a5,9
   10320:	fef42623          	sw	a5,-20(s0)
   10324:	0380006f          	j	1035c <_init_bmp+0x184>
   10328:	fec42783          	lw	a5,-20(s0)
   1032c:	00178793          	addi	a5,a5,1
   10330:	01979693          	slli	a3,a5,0x19
   10334:	fec42783          	lw	a5,-20(s0)
   10338:	00279793          	slli	a5,a5,0x2
   1033c:	fdc42703          	lw	a4,-36(s0)
   10340:	00f707b3          	add	a5,a4,a5
   10344:	02000737          	lui	a4,0x2000
   10348:	00e6f733          	and	a4,a3,a4
   1034c:	00e7a023          	sw	a4,0(a5)
   10350:	fec42783          	lw	a5,-20(s0)
   10354:	00178793          	addi	a5,a5,1
   10358:	fef42623          	sw	a5,-20(s0)
   1035c:	fd842783          	lw	a5,-40(s0)
   10360:	ff978713          	addi	a4,a5,-7
   10364:	fec42783          	lw	a5,-20(s0)
   10368:	fce7e0e3          	bltu	a5,a4,10328 <_init_bmp+0x150>
   1036c:	fec42783          	lw	a5,-20(s0)
   10370:	fff78793          	addi	a5,a5,-1
   10374:	fef42623          	sw	a5,-20(s0)
   10378:	fe042423          	sw	zero,-24(s0)
   1037c:	0640006f          	j	103e0 <_init_bmp+0x208>
   10380:	fe842703          	lw	a4,-24(s0)
   10384:	00400793          	li	a5,4
   10388:	04f70463          	beq	a4,a5,103d0 <_init_bmp+0x1f8>
   1038c:	fec42703          	lw	a4,-20(s0)
   10390:	fe842783          	lw	a5,-24(s0)
   10394:	00f707b3          	add	a5,a4,a5
   10398:	00279793          	slli	a5,a5,0x2
   1039c:	fdc42703          	lw	a4,-36(s0)
   103a0:	00f707b3          	add	a5,a4,a5
   103a4:	0007a683          	lw	a3,0(a5)
   103a8:	fec42703          	lw	a4,-20(s0)
   103ac:	fe842783          	lw	a5,-24(s0)
   103b0:	00f707b3          	add	a5,a4,a5
   103b4:	00279793          	slli	a5,a5,0x2
   103b8:	fdc42703          	lw	a4,-36(s0)
   103bc:	00f707b3          	add	a5,a4,a5
   103c0:	00800737          	lui	a4,0x800
   103c4:	00e6e733          	or	a4,a3,a4
   103c8:	00e7a023          	sw	a4,0(a5)
   103cc:	0080006f          	j	103d4 <_init_bmp+0x1fc>
   103d0:	00000013          	nop
   103d4:	fe842783          	lw	a5,-24(s0)
   103d8:	00178793          	addi	a5,a5,1
   103dc:	fef42423          	sw	a5,-24(s0)
   103e0:	fe842703          	lw	a4,-24(s0)
   103e4:	00700793          	li	a5,7
   103e8:	f8e7dce3          	bge	a5,a4,10380 <_init_bmp+0x1a8>
   103ec:	fdc42783          	lw	a5,-36(s0)
   103f0:	00878793          	addi	a5,a5,8
   103f4:	0007a683          	lw	a3,0(a5)
   103f8:	fdc42783          	lw	a5,-36(s0)
   103fc:	00878793          	addi	a5,a5,8
   10400:	00800737          	lui	a4,0x800
   10404:	00e6e733          	or	a4,a3,a4
   10408:	00e7a023          	sw	a4,0(a5)
   1040c:	fdc42783          	lw	a5,-36(s0)
   10410:	01c78793          	addi	a5,a5,28
   10414:	00800737          	lui	a4,0x800
   10418:	00e7a023          	sw	a4,0(a5)
   1041c:	02200713          	li	a4,34
   10420:	fd842783          	lw	a5,-40(s0)
   10424:	40f707b3          	sub	a5,a4,a5
   10428:	03100713          	li	a4,49
   1042c:	00f717b3          	sll	a5,a4,a5
   10430:	00078693          	mv	a3,a5
   10434:	fdc42783          	lw	a5,-36(s0)
   10438:	02078793          	addi	a5,a5,32
   1043c:	ef800737          	lui	a4,0xef800
   10440:	00e6e733          	or	a4,a3,a4
   10444:	00e7a023          	sw	a4,0(a5)
   10448:	fd842703          	lw	a4,-40(s0)
   1044c:	01500793          	li	a5,21
   10450:	1ae7f863          	bgeu	a5,a4,10600 <_init_bmp+0x428>
   10454:	02400713          	li	a4,36
   10458:	fd842783          	lw	a5,-40(s0)
   1045c:	40f707b3          	sub	a5,a4,a5
   10460:	01f00713          	li	a4,31
   10464:	00f717b3          	sll	a5,a4,a5
   10468:	fef42223          	sw	a5,-28(s0)
   1046c:	fd842703          	lw	a4,-40(s0)
   10470:	400007b7          	lui	a5,0x40000
   10474:	ff778793          	addi	a5,a5,-9 # 3ffffff7 <__BSS_END__+0x3ffdb3db>
   10478:	00f707b3          	add	a5,a4,a5
   1047c:	00279793          	slli	a5,a5,0x2
   10480:	fdc42703          	lw	a4,-36(s0)
   10484:	00f707b3          	add	a5,a4,a5
   10488:	0007a683          	lw	a3,0(a5)
   1048c:	fd842703          	lw	a4,-40(s0)
   10490:	400007b7          	lui	a5,0x40000
   10494:	ff778793          	addi	a5,a5,-9 # 3ffffff7 <__BSS_END__+0x3ffdb3db>
   10498:	00f707b3          	add	a5,a4,a5
   1049c:	00279793          	slli	a5,a5,0x2
   104a0:	fdc42703          	lw	a4,-36(s0)
   104a4:	00f707b3          	add	a5,a4,a5
   104a8:	fe442703          	lw	a4,-28(s0)
   104ac:	00e6e733          	or	a4,a3,a4
   104b0:	00e7a023          	sw	a4,0(a5)
   104b4:	fd842703          	lw	a4,-40(s0)
   104b8:	400007b7          	lui	a5,0x40000
   104bc:	ffb78793          	addi	a5,a5,-5 # 3ffffffb <__BSS_END__+0x3ffdb3df>
   104c0:	00f707b3          	add	a5,a4,a5
   104c4:	00279793          	slli	a5,a5,0x2
   104c8:	fdc42703          	lw	a4,-36(s0)
   104cc:	00f707b3          	add	a5,a4,a5
   104d0:	0007a683          	lw	a3,0(a5)
   104d4:	fd842703          	lw	a4,-40(s0)
   104d8:	400007b7          	lui	a5,0x40000
   104dc:	ffb78793          	addi	a5,a5,-5 # 3ffffffb <__BSS_END__+0x3ffdb3df>
   104e0:	00f707b3          	add	a5,a4,a5
   104e4:	00279793          	slli	a5,a5,0x2
   104e8:	fdc42703          	lw	a4,-36(s0)
   104ec:	00f707b3          	add	a5,a4,a5
   104f0:	fe442703          	lw	a4,-28(s0)
   104f4:	00e6e733          	or	a4,a3,a4
   104f8:	00e7a023          	sw	a4,0(a5)
   104fc:	02400713          	li	a4,36
   10500:	fd842783          	lw	a5,-40(s0)
   10504:	40f707b3          	sub	a5,a4,a5
   10508:	01100713          	li	a4,17
   1050c:	00f717b3          	sll	a5,a4,a5
   10510:	fef42223          	sw	a5,-28(s0)
   10514:	fd842703          	lw	a4,-40(s0)
   10518:	400007b7          	lui	a5,0x40000
   1051c:	ff878793          	addi	a5,a5,-8 # 3ffffff8 <__BSS_END__+0x3ffdb3dc>
   10520:	00f707b3          	add	a5,a4,a5
   10524:	00279793          	slli	a5,a5,0x2
   10528:	fdc42703          	lw	a4,-36(s0)
   1052c:	00f707b3          	add	a5,a4,a5
   10530:	0007a683          	lw	a3,0(a5)
   10534:	fd842703          	lw	a4,-40(s0)
   10538:	400007b7          	lui	a5,0x40000
   1053c:	ff878793          	addi	a5,a5,-8 # 3ffffff8 <__BSS_END__+0x3ffdb3dc>
   10540:	00f707b3          	add	a5,a4,a5
   10544:	00279793          	slli	a5,a5,0x2
   10548:	fdc42703          	lw	a4,-36(s0)
   1054c:	00f707b3          	add	a5,a4,a5
   10550:	fe442703          	lw	a4,-28(s0)
   10554:	00e6e733          	or	a4,a3,a4
   10558:	00e7a023          	sw	a4,0(a5)
   1055c:	fd842703          	lw	a4,-40(s0)
   10560:	400007b7          	lui	a5,0x40000
   10564:	ffa78793          	addi	a5,a5,-6 # 3ffffffa <__BSS_END__+0x3ffdb3de>
   10568:	00f707b3          	add	a5,a4,a5
   1056c:	00279793          	slli	a5,a5,0x2
   10570:	fdc42703          	lw	a4,-36(s0)
   10574:	00f707b3          	add	a5,a4,a5
   10578:	0007a683          	lw	a3,0(a5)
   1057c:	fd842703          	lw	a4,-40(s0)
   10580:	400007b7          	lui	a5,0x40000
   10584:	ffa78793          	addi	a5,a5,-6 # 3ffffffa <__BSS_END__+0x3ffdb3de>
   10588:	00f707b3          	add	a5,a4,a5
   1058c:	00279793          	slli	a5,a5,0x2
   10590:	fdc42703          	lw	a4,-36(s0)
   10594:	00f707b3          	add	a5,a4,a5
   10598:	fe442703          	lw	a4,-28(s0)
   1059c:	00e6e733          	or	a4,a3,a4
   105a0:	00e7a023          	sw	a4,0(a5)
   105a4:	fd842703          	lw	a4,-40(s0)
   105a8:	400007b7          	lui	a5,0x40000
   105ac:	ff978793          	addi	a5,a5,-7 # 3ffffff9 <__BSS_END__+0x3ffdb3dd>
   105b0:	00f707b3          	add	a5,a4,a5
   105b4:	00279793          	slli	a5,a5,0x2
   105b8:	fdc42703          	lw	a4,-36(s0)
   105bc:	00f707b3          	add	a5,a4,a5
   105c0:	0007a703          	lw	a4,0(a5)
   105c4:	02400693          	li	a3,36
   105c8:	fd842783          	lw	a5,-40(s0)
   105cc:	40f687b3          	sub	a5,a3,a5
   105d0:	01500693          	li	a3,21
   105d4:	00f697b3          	sll	a5,a3,a5
   105d8:	00078613          	mv	a2,a5
   105dc:	fd842683          	lw	a3,-40(s0)
   105e0:	400007b7          	lui	a5,0x40000
   105e4:	ff978793          	addi	a5,a5,-7 # 3ffffff9 <__BSS_END__+0x3ffdb3dd>
   105e8:	00f687b3          	add	a5,a3,a5
   105ec:	00279793          	slli	a5,a5,0x2
   105f0:	fdc42683          	lw	a3,-36(s0)
   105f4:	00f687b3          	add	a5,a3,a5
   105f8:	00c76733          	or	a4,a4,a2
   105fc:	00e7a023          	sw	a4,0(a5)
   10600:	00000013          	nop
   10604:	02c12403          	lw	s0,44(sp)
   10608:	03010113          	addi	sp,sp,48
   1060c:	00008067          	ret

00010610 <qr_eval>:
   10610:	fd010113          	addi	sp,sp,-48
   10614:	02112623          	sw	ra,44(sp)
   10618:	02812423          	sw	s0,40(sp)
   1061c:	03010413          	addi	s0,sp,48
   10620:	fca42e23          	sw	a0,-36(s0)
   10624:	fcb42c23          	sw	a1,-40(s0)
   10628:	fcc42a23          	sw	a2,-44(s0)
   1062c:	fcd42823          	sw	a3,-48(s0)
   10630:	fdc42783          	lw	a5,-36(s0)
   10634:	00079663          	bnez	a5,10640 <qr_eval+0x30>
   10638:	00000793          	li	a5,0
   1063c:	1080006f          	j	10744 <qr_eval+0x134>
   10640:	fdc42783          	lw	a5,-36(s0)
   10644:	fd442703          	lw	a4,-44(s0)
   10648:	00e7a223          	sw	a4,4(a5)
   1064c:	fd042783          	lw	a5,-48(s0)
   10650:	0ff7f713          	zext.b	a4,a5
   10654:	fdc42783          	lw	a5,-36(s0)
   10658:	00e780a3          	sb	a4,1(a5)
   1065c:	000227b7          	lui	a5,0x22
   10660:	68478793          	addi	a5,a5,1668 # 22684 <_params_blob.1>
   10664:	fef42623          	sw	a5,-20(s0)
   10668:	fd842703          	lw	a4,-40(s0)
   1066c:	00300793          	li	a5,3
   10670:	02f70c63          	beq	a4,a5,106a8 <qr_eval+0x98>
   10674:	fd842703          	lw	a4,-40(s0)
   10678:	00300793          	li	a5,3
   1067c:	02e7ee63          	bltu	a5,a4,106b8 <qr_eval+0xa8>
   10680:	fd842703          	lw	a4,-40(s0)
   10684:	00100793          	li	a5,1
   10688:	02f70c63          	beq	a4,a5,106c0 <qr_eval+0xb0>
   1068c:	fd842703          	lw	a4,-40(s0)
   10690:	00200793          	li	a5,2
   10694:	02f71263          	bne	a4,a5,106b8 <qr_eval+0xa8>
   10698:	fec42783          	lw	a5,-20(s0)
   1069c:	00978793          	addi	a5,a5,9
   106a0:	fef42623          	sw	a5,-20(s0)
   106a4:	0200006f          	j	106c4 <qr_eval+0xb4>
   106a8:	fec42783          	lw	a5,-20(s0)
   106ac:	01578793          	addi	a5,a5,21
   106b0:	fef42623          	sw	a5,-20(s0)
   106b4:	0100006f          	j	106c4 <qr_eval+0xb4>
   106b8:	00000793          	li	a5,0
   106bc:	0880006f          	j	10744 <qr_eval+0x134>
   106c0:	00000013          	nop
   106c4:	fd842783          	lw	a5,-40(s0)
   106c8:	00279793          	slli	a5,a5,0x2
   106cc:	01178793          	addi	a5,a5,17
   106d0:	fef42423          	sw	a5,-24(s0)
   106d4:	fec42703          	lw	a4,-20(s0)
   106d8:	fdc42783          	lw	a5,-36(s0)
   106dc:	00e7a423          	sw	a4,8(a5)
   106e0:	fec42783          	lw	a5,-20(s0)
   106e4:	0007c783          	lbu	a5,0(a5)
   106e8:	00078713          	mv	a4,a5
   106ec:	fec42783          	lw	a5,-20(s0)
   106f0:	0017c783          	lbu	a5,1(a5)
   106f4:	40f707b3          	sub	a5,a4,a5
   106f8:	ffe78793          	addi	a5,a5,-2
   106fc:	fef42223          	sw	a5,-28(s0)
   10700:	fe442703          	lw	a4,-28(s0)
   10704:	fd042783          	lw	a5,-48(s0)
   10708:	00f77663          	bgeu	a4,a5,10714 <qr_eval+0x104>
   1070c:	00000793          	li	a5,0
   10710:	0340006f          	j	10744 <qr_eval+0x134>
   10714:	fe842783          	lw	a5,-24(s0)
   10718:	0ff7f713          	zext.b	a4,a5
   1071c:	fdc42783          	lw	a5,-36(s0)
   10720:	00e78023          	sb	a4,0(a5)
   10724:	fdc42783          	lw	a5,-36(s0)
   10728:	00c78713          	addi	a4,a5,12
   1072c:	fdc42783          	lw	a5,-36(s0)
   10730:	0007c783          	lbu	a5,0(a5)
   10734:	00078593          	mv	a1,a5
   10738:	00070513          	mv	a0,a4
   1073c:	a9dff0ef          	jal	101d8 <_init_bmp>
   10740:	00100793          	li	a5,1
   10744:	00078513          	mv	a0,a5
   10748:	02c12083          	lw	ra,44(sp)
   1074c:	02812403          	lw	s0,40(sp)
   10750:	03010113          	addi	sp,sp,48
   10754:	00008067          	ret

00010758 <_serialize_data>:
   10758:	fd010113          	addi	sp,sp,-48
   1075c:	02812623          	sw	s0,44(sp)
   10760:	03010413          	addi	s0,sp,48
   10764:	fca42e23          	sw	a0,-36(s0)
   10768:	fcb42c23          	sw	a1,-40(s0)
   1076c:	fdc42783          	lw	a5,-36(s0)
   10770:	0017c783          	lbu	a5,1(a5)
   10774:	4007e793          	ori	a5,a5,1024
   10778:	fef42623          	sw	a5,-20(s0)
   1077c:	fec42783          	lw	a5,-20(s0)
   10780:	0047d793          	srli	a5,a5,0x4
   10784:	0ff7f713          	zext.b	a4,a5
   10788:	fd842783          	lw	a5,-40(s0)
   1078c:	00e78023          	sb	a4,0(a5)
   10790:	fe042423          	sw	zero,-24(s0)
   10794:	0580006f          	j	107ec <_serialize_data+0x94>
   10798:	fec42783          	lw	a5,-20(s0)
   1079c:	00879793          	slli	a5,a5,0x8
   107a0:	fef42623          	sw	a5,-20(s0)
   107a4:	fdc42783          	lw	a5,-36(s0)
   107a8:	0047a703          	lw	a4,4(a5)
   107ac:	fe842783          	lw	a5,-24(s0)
   107b0:	00178693          	addi	a3,a5,1
   107b4:	fed42423          	sw	a3,-24(s0)
   107b8:	00f707b3          	add	a5,a4,a5
   107bc:	0007c783          	lbu	a5,0(a5)
   107c0:	00078713          	mv	a4,a5
   107c4:	fec42783          	lw	a5,-20(s0)
   107c8:	00e7e7b3          	or	a5,a5,a4
   107cc:	fef42623          	sw	a5,-20(s0)
   107d0:	fec42783          	lw	a5,-20(s0)
   107d4:	0047d693          	srli	a3,a5,0x4
   107d8:	fd842703          	lw	a4,-40(s0)
   107dc:	fe842783          	lw	a5,-24(s0)
   107e0:	00f707b3          	add	a5,a4,a5
   107e4:	0ff6f713          	zext.b	a4,a3
   107e8:	00e78023          	sb	a4,0(a5)
   107ec:	fdc42783          	lw	a5,-36(s0)
   107f0:	0017c783          	lbu	a5,1(a5)
   107f4:	00078713          	mv	a4,a5
   107f8:	fe842783          	lw	a5,-24(s0)
   107fc:	f8e7eee3          	bltu	a5,a4,10798 <_serialize_data+0x40>
   10800:	fe842783          	lw	a5,-24(s0)
   10804:	00178793          	addi	a5,a5,1
   10808:	fef42423          	sw	a5,-24(s0)
   1080c:	fec42783          	lw	a5,-20(s0)
   10810:	0ff7f713          	zext.b	a4,a5
   10814:	fe842783          	lw	a5,-24(s0)
   10818:	00178693          	addi	a3,a5,1
   1081c:	fed42423          	sw	a3,-24(s0)
   10820:	fd842683          	lw	a3,-40(s0)
   10824:	00f687b3          	add	a5,a3,a5
   10828:	00471713          	slli	a4,a4,0x4
   1082c:	0ff77713          	zext.b	a4,a4
   10830:	00e78023          	sb	a4,0(a5)
   10834:	0ec00793          	li	a5,236
   10838:	fef42623          	sw	a5,-20(s0)
   1083c:	fdc42783          	lw	a5,-36(s0)
   10840:	0087a783          	lw	a5,8(a5)
   10844:	fef42223          	sw	a5,-28(s0)
   10848:	0300006f          	j	10878 <_serialize_data+0x120>
   1084c:	fe842783          	lw	a5,-24(s0)
   10850:	00178713          	addi	a4,a5,1
   10854:	fee42423          	sw	a4,-24(s0)
   10858:	fd842703          	lw	a4,-40(s0)
   1085c:	00f707b3          	add	a5,a4,a5
   10860:	fec42703          	lw	a4,-20(s0)
   10864:	0ff77713          	zext.b	a4,a4
   10868:	00e78023          	sb	a4,0(a5)
   1086c:	fec42783          	lw	a5,-20(s0)
   10870:	0fd7c793          	xori	a5,a5,253
   10874:	fef42623          	sw	a5,-20(s0)
   10878:	fe442783          	lw	a5,-28(s0)
   1087c:	0007c783          	lbu	a5,0(a5)
   10880:	00078713          	mv	a4,a5
   10884:	fe442783          	lw	a5,-28(s0)
   10888:	0017c783          	lbu	a5,1(a5)
   1088c:	40f707b3          	sub	a5,a4,a5
   10890:	00078713          	mv	a4,a5
   10894:	fe842783          	lw	a5,-24(s0)
   10898:	fae7eae3          	bltu	a5,a4,1084c <_serialize_data+0xf4>
   1089c:	01c0006f          	j	108b8 <_serialize_data+0x160>
   108a0:	fe842783          	lw	a5,-24(s0)
   108a4:	00178713          	addi	a4,a5,1
   108a8:	fee42423          	sw	a4,-24(s0)
   108ac:	fd842703          	lw	a4,-40(s0)
   108b0:	00f707b3          	add	a5,a4,a5
   108b4:	00078023          	sb	zero,0(a5)
   108b8:	fe442783          	lw	a5,-28(s0)
   108bc:	0007c783          	lbu	a5,0(a5)
   108c0:	00078713          	mv	a4,a5
   108c4:	fe842783          	lw	a5,-24(s0)
   108c8:	fcf77ce3          	bgeu	a4,a5,108a0 <_serialize_data+0x148>
   108cc:	00000013          	nop
   108d0:	00000013          	nop
   108d4:	02c12403          	lw	s0,44(sp)
   108d8:	03010113          	addi	sp,sp,48
   108dc:	00008067          	ret

000108e0 <_rs_mul>:
   108e0:	fd010113          	addi	sp,sp,-48
   108e4:	02812623          	sw	s0,44(sp)
   108e8:	03010413          	addi	s0,sp,48
   108ec:	fca42e23          	sw	a0,-36(s0)
   108f0:	fcb42c23          	sw	a1,-40(s0)
   108f4:	fdc42783          	lw	a5,-36(s0)
   108f8:	00078663          	beqz	a5,10904 <_rs_mul+0x24>
   108fc:	fd842783          	lw	a5,-40(s0)
   10900:	00079663          	bnez	a5,1090c <_rs_mul+0x2c>
   10904:	00000793          	li	a5,0
   10908:	0640006f          	j	1096c <_rs_mul+0x8c>
   1090c:	000227b7          	lui	a5,0x22
   10910:	6ac78713          	addi	a4,a5,1708 # 226ac <_luts.0>
   10914:	fdc42783          	lw	a5,-36(s0)
   10918:	00f707b3          	add	a5,a4,a5
   1091c:	0007c783          	lbu	a5,0(a5)
   10920:	00078693          	mv	a3,a5
   10924:	000227b7          	lui	a5,0x22
   10928:	6ac78713          	addi	a4,a5,1708 # 226ac <_luts.0>
   1092c:	fd842783          	lw	a5,-40(s0)
   10930:	00f707b3          	add	a5,a4,a5
   10934:	0007c783          	lbu	a5,0(a5)
   10938:	00f687b3          	add	a5,a3,a5
   1093c:	fef42623          	sw	a5,-20(s0)
   10940:	fec42703          	lw	a4,-20(s0)
   10944:	0ff00793          	li	a5,255
   10948:	00e7f863          	bgeu	a5,a4,10958 <_rs_mul+0x78>
   1094c:	fec42783          	lw	a5,-20(s0)
   10950:	f0178793          	addi	a5,a5,-255
   10954:	fef42623          	sw	a5,-20(s0)
   10958:	000227b7          	lui	a5,0x22
   1095c:	6ac78713          	addi	a4,a5,1708 # 226ac <_luts.0>
   10960:	fec42783          	lw	a5,-20(s0)
   10964:	00f707b3          	add	a5,a4,a5
   10968:	1007c783          	lbu	a5,256(a5)
   1096c:	00078513          	mv	a0,a5
   10970:	02c12403          	lw	s0,44(sp)
   10974:	03010113          	addi	sp,sp,48
   10978:	00008067          	ret

0001097c <_reed_solomon>:
   1097c:	fb010113          	addi	sp,sp,-80
   10980:	04112623          	sw	ra,76(sp)
   10984:	04812423          	sw	s0,72(sp)
   10988:	05010413          	addi	s0,sp,80
   1098c:	faa42e23          	sw	a0,-68(s0)
   10990:	fab42c23          	sw	a1,-72(s0)
   10994:	fbc42783          	lw	a5,-68(s0)
   10998:	0087a783          	lw	a5,8(a5)
   1099c:	fef42023          	sw	a5,-32(s0)
   109a0:	fe042783          	lw	a5,-32(s0)
   109a4:	0017c783          	lbu	a5,1(a5)
   109a8:	fcf42e23          	sw	a5,-36(s0)
   109ac:	fe042783          	lw	a5,-32(s0)
   109b0:	00278793          	addi	a5,a5,2
   109b4:	fcf42c23          	sw	a5,-40(s0)
   109b8:	fe042783          	lw	a5,-32(s0)
   109bc:	0007c783          	lbu	a5,0(a5)
   109c0:	00078713          	mv	a4,a5
   109c4:	fe042783          	lw	a5,-32(s0)
   109c8:	0017c783          	lbu	a5,1(a5)
   109cc:	40f707b3          	sub	a5,a4,a5
   109d0:	fcf42a23          	sw	a5,-44(s0)
   109d4:	fb842703          	lw	a4,-72(s0)
   109d8:	fd442783          	lw	a5,-44(s0)
   109dc:	00f707b3          	add	a5,a4,a5
   109e0:	fcf42823          	sw	a5,-48(s0)
   109e4:	fe042623          	sw	zero,-20(s0)
   109e8:	0fc0006f          	j	10ae4 <_reed_solomon+0x168>
   109ec:	fb842703          	lw	a4,-72(s0)
   109f0:	fec42783          	lw	a5,-20(s0)
   109f4:	00f707b3          	add	a5,a4,a5
   109f8:	0007c703          	lbu	a4,0(a5)
   109fc:	fd042783          	lw	a5,-48(s0)
   10a00:	0007c783          	lbu	a5,0(a5)
   10a04:	00f747b3          	xor	a5,a4,a5
   10a08:	0ff7f793          	zext.b	a5,a5
   10a0c:	fcf42623          	sw	a5,-52(s0)
   10a10:	00100793          	li	a5,1
   10a14:	fef42423          	sw	a5,-24(s0)
   10a18:	0340006f          	j	10a4c <_reed_solomon+0xd0>
   10a1c:	fd042703          	lw	a4,-48(s0)
   10a20:	fe842783          	lw	a5,-24(s0)
   10a24:	00f70733          	add	a4,a4,a5
   10a28:	fe842783          	lw	a5,-24(s0)
   10a2c:	fff78793          	addi	a5,a5,-1
   10a30:	fd042683          	lw	a3,-48(s0)
   10a34:	00f687b3          	add	a5,a3,a5
   10a38:	00074703          	lbu	a4,0(a4) # ef800000 <__BSS_END__+0xef7db3e4>
   10a3c:	00e78023          	sb	a4,0(a5)
   10a40:	fe842783          	lw	a5,-24(s0)
   10a44:	00178793          	addi	a5,a5,1
   10a48:	fef42423          	sw	a5,-24(s0)
   10a4c:	fe842703          	lw	a4,-24(s0)
   10a50:	fdc42783          	lw	a5,-36(s0)
   10a54:	fcf764e3          	bltu	a4,a5,10a1c <_reed_solomon+0xa0>
   10a58:	fdc42783          	lw	a5,-36(s0)
   10a5c:	fff78793          	addi	a5,a5,-1
   10a60:	fd042703          	lw	a4,-48(s0)
   10a64:	00f707b3          	add	a5,a4,a5
   10a68:	00078023          	sb	zero,0(a5)
   10a6c:	fe042223          	sw	zero,-28(s0)
   10a70:	05c0006f          	j	10acc <_reed_solomon+0x150>
   10a74:	fd842703          	lw	a4,-40(s0)
   10a78:	fe442783          	lw	a5,-28(s0)
   10a7c:	00f707b3          	add	a5,a4,a5
   10a80:	0007c783          	lbu	a5,0(a5)
   10a84:	fcc42583          	lw	a1,-52(s0)
   10a88:	00078513          	mv	a0,a5
   10a8c:	e55ff0ef          	jal	108e0 <_rs_mul>
   10a90:	00050613          	mv	a2,a0
   10a94:	fd042703          	lw	a4,-48(s0)
   10a98:	fe442783          	lw	a5,-28(s0)
   10a9c:	00f707b3          	add	a5,a4,a5
   10aa0:	0007c683          	lbu	a3,0(a5)
   10aa4:	0ff67713          	zext.b	a4,a2
   10aa8:	fd042603          	lw	a2,-48(s0)
   10aac:	fe442783          	lw	a5,-28(s0)
   10ab0:	00f607b3          	add	a5,a2,a5
   10ab4:	00e6c733          	xor	a4,a3,a4
   10ab8:	0ff77713          	zext.b	a4,a4
   10abc:	00e78023          	sb	a4,0(a5)
   10ac0:	fe442783          	lw	a5,-28(s0)
   10ac4:	00178793          	addi	a5,a5,1
   10ac8:	fef42223          	sw	a5,-28(s0)
   10acc:	fe442703          	lw	a4,-28(s0)
   10ad0:	fdc42783          	lw	a5,-36(s0)
   10ad4:	faf760e3          	bltu	a4,a5,10a74 <_reed_solomon+0xf8>
   10ad8:	fec42783          	lw	a5,-20(s0)
   10adc:	00178793          	addi	a5,a5,1
   10ae0:	fef42623          	sw	a5,-20(s0)
   10ae4:	fec42703          	lw	a4,-20(s0)
   10ae8:	fd442783          	lw	a5,-44(s0)
   10aec:	f0f760e3          	bltu	a4,a5,109ec <_reed_solomon+0x70>
   10af0:	00000013          	nop
   10af4:	00000013          	nop
   10af8:	04c12083          	lw	ra,76(sp)
   10afc:	04812403          	lw	s0,72(sp)
   10b00:	05010113          	addi	sp,sp,80
   10b04:	00008067          	ret

00010b08 <_is_data>:
   10b08:	fe010113          	addi	sp,sp,-32
   10b0c:	00812e23          	sw	s0,28(sp)
   10b10:	02010413          	addi	s0,sp,32
   10b14:	fea42623          	sw	a0,-20(s0)
   10b18:	feb42423          	sw	a1,-24(s0)
   10b1c:	fec42223          	sw	a2,-28(s0)
   10b20:	fec42703          	lw	a4,-20(s0)
   10b24:	00600793          	li	a5,6
   10b28:	00f70863          	beq	a4,a5,10b38 <_is_data+0x30>
   10b2c:	fe842703          	lw	a4,-24(s0)
   10b30:	00600793          	li	a5,6
   10b34:	00f71663          	bne	a4,a5,10b40 <_is_data+0x38>
   10b38:	00000793          	li	a5,0
   10b3c:	0c00006f          	j	10bfc <_is_data+0xf4>
   10b40:	fe842703          	lw	a4,-24(s0)
   10b44:	00800793          	li	a5,8
   10b48:	02e7ec63          	bltu	a5,a4,10b80 <_is_data+0x78>
   10b4c:	fec42703          	lw	a4,-20(s0)
   10b50:	00800793          	li	a5,8
   10b54:	00e7fe63          	bgeu	a5,a4,10b70 <_is_data+0x68>
   10b58:	fe442783          	lw	a5,-28(s0)
   10b5c:	ff878793          	addi	a5,a5,-8
   10b60:	fec42703          	lw	a4,-20(s0)
   10b64:	00e7e663          	bltu	a5,a4,10b70 <_is_data+0x68>
   10b68:	00100793          	li	a5,1
   10b6c:	0080006f          	j	10b74 <_is_data+0x6c>
   10b70:	00000793          	li	a5,0
   10b74:	0017f793          	andi	a5,a5,1
   10b78:	0ff7f793          	zext.b	a5,a5
   10b7c:	0800006f          	j	10bfc <_is_data+0xf4>
   10b80:	fe442783          	lw	a5,-28(s0)
   10b84:	ff978793          	addi	a5,a5,-7
   10b88:	fe842703          	lw	a4,-24(s0)
   10b8c:	00f76c63          	bltu	a4,a5,10ba4 <_is_data+0x9c>
   10b90:	fec42703          	lw	a4,-20(s0)
   10b94:	00800793          	li	a5,8
   10b98:	00e7e663          	bltu	a5,a4,10ba4 <_is_data+0x9c>
   10b9c:	00000793          	li	a5,0
   10ba0:	05c0006f          	j	10bfc <_is_data+0xf4>
   10ba4:	fe442703          	lw	a4,-28(s0)
   10ba8:	01400793          	li	a5,20
   10bac:	04e7f663          	bgeu	a5,a4,10bf8 <_is_data+0xf0>
   10bb0:	fe442783          	lw	a5,-28(s0)
   10bb4:	ff878793          	addi	a5,a5,-8
   10bb8:	fec42703          	lw	a4,-20(s0)
   10bbc:	02f76e63          	bltu	a4,a5,10bf8 <_is_data+0xf0>
   10bc0:	fe442783          	lw	a5,-28(s0)
   10bc4:	ffc78793          	addi	a5,a5,-4
   10bc8:	fec42703          	lw	a4,-20(s0)
   10bcc:	02e7e663          	bltu	a5,a4,10bf8 <_is_data+0xf0>
   10bd0:	fe442783          	lw	a5,-28(s0)
   10bd4:	ff878793          	addi	a5,a5,-8
   10bd8:	fe842703          	lw	a4,-24(s0)
   10bdc:	00f76e63          	bltu	a4,a5,10bf8 <_is_data+0xf0>
   10be0:	fe442783          	lw	a5,-28(s0)
   10be4:	ffc78793          	addi	a5,a5,-4
   10be8:	fe842703          	lw	a4,-24(s0)
   10bec:	00e7e663          	bltu	a5,a4,10bf8 <_is_data+0xf0>
   10bf0:	00000793          	li	a5,0
   10bf4:	0080006f          	j	10bfc <_is_data+0xf4>
   10bf8:	00100793          	li	a5,1
   10bfc:	00078513          	mv	a0,a5
   10c00:	01c12403          	lw	s0,28(sp)
   10c04:	02010113          	addi	sp,sp,32
   10c08:	00008067          	ret

00010c0c <zigzag_step>:
   10c0c:	fd010113          	addi	sp,sp,-48
   10c10:	02112623          	sw	ra,44(sp)
   10c14:	02812423          	sw	s0,40(sp)
   10c18:	03010413          	addi	s0,sp,48
   10c1c:	fca42e23          	sw	a0,-36(s0)
   10c20:	fcb42c23          	sw	a1,-40(s0)
   10c24:	fcc42a23          	sw	a2,-44(s0)
   10c28:	fdc42783          	lw	a5,-36(s0)
   10c2c:	0077b793          	sltiu	a5,a5,7
   10c30:	0017b793          	seqz	a5,a5
   10c34:	0ff7f793          	zext.b	a5,a5
   10c38:	00078713          	mv	a4,a5
   10c3c:	fdc42783          	lw	a5,-36(s0)
   10c40:	40e787b3          	sub	a5,a5,a4
   10c44:	0037f793          	andi	a5,a5,3
   10c48:	00200713          	li	a4,2
   10c4c:	06e78263          	beq	a5,a4,10cb0 <zigzag_step+0xa4>
   10c50:	00200713          	li	a4,2
   10c54:	0af76263          	bltu	a4,a5,10cf8 <zigzag_step+0xec>
   10c58:	00078863          	beqz	a5,10c68 <zigzag_step+0x5c>
   10c5c:	00100713          	li	a4,1
   10c60:	04e78063          	beq	a5,a4,10ca0 <zigzag_step+0x94>
   10c64:	0940006f          	j	10cf8 <zigzag_step+0xec>
   10c68:	fd842703          	lw	a4,-40(s0)
   10c6c:	fd442783          	lw	a5,-44(s0)
   10c70:	02f77063          	bgeu	a4,a5,10c90 <zigzag_step+0x84>
   10c74:	fdc42783          	lw	a5,-36(s0)
   10c78:	00178793          	addi	a5,a5,1
   10c7c:	fcf42e23          	sw	a5,-36(s0)
   10c80:	fd842783          	lw	a5,-40(s0)
   10c84:	00178793          	addi	a5,a5,1
   10c88:	fcf42c23          	sw	a5,-40(s0)
   10c8c:	0800006f          	j	10d0c <zigzag_step+0x100>
   10c90:	fdc42783          	lw	a5,-36(s0)
   10c94:	fff78793          	addi	a5,a5,-1
   10c98:	fcf42e23          	sw	a5,-36(s0)
   10c9c:	0700006f          	j	10d0c <zigzag_step+0x100>
   10ca0:	fdc42783          	lw	a5,-36(s0)
   10ca4:	fff78793          	addi	a5,a5,-1
   10ca8:	fcf42e23          	sw	a5,-36(s0)
   10cac:	0600006f          	j	10d0c <zigzag_step+0x100>
   10cb0:	fd842783          	lw	a5,-40(s0)
   10cb4:	02078063          	beqz	a5,10cd4 <zigzag_step+0xc8>
   10cb8:	fdc42783          	lw	a5,-36(s0)
   10cbc:	00178793          	addi	a5,a5,1
   10cc0:	fcf42e23          	sw	a5,-36(s0)
   10cc4:	fd842783          	lw	a5,-40(s0)
   10cc8:	fff78793          	addi	a5,a5,-1
   10ccc:	fcf42c23          	sw	a5,-40(s0)
   10cd0:	0380006f          	j	10d08 <zigzag_step+0xfc>
   10cd4:	fdc42783          	lw	a5,-36(s0)
   10cd8:	fff78793          	addi	a5,a5,-1
   10cdc:	fcf42e23          	sw	a5,-36(s0)
   10ce0:	fdc42703          	lw	a4,-36(s0)
   10ce4:	00600793          	li	a5,6
   10ce8:	02f71063          	bne	a4,a5,10d08 <zigzag_step+0xfc>
   10cec:	00500793          	li	a5,5
   10cf0:	fcf42e23          	sw	a5,-36(s0)
   10cf4:	0140006f          	j	10d08 <zigzag_step+0xfc>
   10cf8:	fdc42783          	lw	a5,-36(s0)
   10cfc:	fff78793          	addi	a5,a5,-1
   10d00:	fcf42e23          	sw	a5,-36(s0)
   10d04:	0080006f          	j	10d0c <zigzag_step+0x100>
   10d08:	00000013          	nop
   10d0c:	fd442603          	lw	a2,-44(s0)
   10d10:	fd842583          	lw	a1,-40(s0)
   10d14:	fdc42503          	lw	a0,-36(s0)
   10d18:	df1ff0ef          	jal	10b08 <_is_data>
   10d1c:	00050793          	mv	a5,a0
   10d20:	00079463          	bnez	a5,10d28 <zigzag_step+0x11c>
   10d24:	f05ff06f          	j	10c28 <zigzag_step+0x1c>
   10d28:	00000013          	nop
   10d2c:	fdc42783          	lw	a5,-36(s0)
   10d30:	fef42423          	sw	a5,-24(s0)
   10d34:	fd842783          	lw	a5,-40(s0)
   10d38:	fef42623          	sw	a5,-20(s0)
   10d3c:	fe842703          	lw	a4,-24(s0)
   10d40:	fec42783          	lw	a5,-20(s0)
   10d44:	00070513          	mv	a0,a4
   10d48:	00078593          	mv	a1,a5
   10d4c:	02c12083          	lw	ra,44(sp)
   10d50:	02812403          	lw	s0,40(sp)
   10d54:	03010113          	addi	sp,sp,48
   10d58:	00008067          	ret

00010d5c <_place_data>:
   10d5c:	fc010113          	addi	sp,sp,-64
   10d60:	02112e23          	sw	ra,60(sp)
   10d64:	02812c23          	sw	s0,56(sp)
   10d68:	04010413          	addi	s0,sp,64
   10d6c:	fca42623          	sw	a0,-52(s0)
   10d70:	fcb42423          	sw	a1,-56(s0)
   10d74:	fcc42783          	lw	a5,-52(s0)
   10d78:	0007c783          	lbu	a5,0(a5)
   10d7c:	fff78793          	addi	a5,a5,-1
   10d80:	fef42223          	sw	a5,-28(s0)
   10d84:	fe442783          	lw	a5,-28(s0)
   10d88:	fcf42823          	sw	a5,-48(s0)
   10d8c:	fe442783          	lw	a5,-28(s0)
   10d90:	fcf42a23          	sw	a5,-44(s0)
   10d94:	fcc42783          	lw	a5,-52(s0)
   10d98:	0087a783          	lw	a5,8(a5)
   10d9c:	fef42023          	sw	a5,-32(s0)
   10da0:	fe042783          	lw	a5,-32(s0)
   10da4:	0007c783          	lbu	a5,0(a5)
   10da8:	00379793          	slli	a5,a5,0x3
   10dac:	fef42623          	sw	a5,-20(s0)
   10db0:	fe442703          	lw	a4,-28(s0)
   10db4:	01400793          	li	a5,20
   10db8:	00e7f863          	bgeu	a5,a4,10dc8 <_place_data+0x6c>
   10dbc:	fec42783          	lw	a5,-20(s0)
   10dc0:	00778793          	addi	a5,a5,7
   10dc4:	fef42623          	sw	a5,-20(s0)
   10dc8:	fe042423          	sw	zero,-24(s0)
   10dcc:	0d80006f          	j	10ea4 <_place_data+0x148>
   10dd0:	fd042703          	lw	a4,-48(s0)
   10dd4:	fd442783          	lw	a5,-44(s0)
   10dd8:	00f707b3          	add	a5,a4,a5
   10ddc:	0017f793          	andi	a5,a5,1
   10de0:	0017b793          	seqz	a5,a5
   10de4:	fcf40fa3          	sb	a5,-33(s0)
   10de8:	fe842783          	lw	a5,-24(s0)
   10dec:	41f7d713          	srai	a4,a5,0x1f
   10df0:	00777713          	andi	a4,a4,7
   10df4:	00f707b3          	add	a5,a4,a5
   10df8:	4037d793          	srai	a5,a5,0x3
   10dfc:	00078713          	mv	a4,a5
   10e00:	fc842783          	lw	a5,-56(s0)
   10e04:	00e787b3          	add	a5,a5,a4
   10e08:	0007c783          	lbu	a5,0(a5)
   10e0c:	00078693          	mv	a3,a5
   10e10:	fe842783          	lw	a5,-24(s0)
   10e14:	0077f793          	andi	a5,a5,7
   10e18:	08000713          	li	a4,128
   10e1c:	00f757b3          	srl	a5,a4,a5
   10e20:	00f6f7b3          	and	a5,a3,a5
   10e24:	00f037b3          	snez	a5,a5
   10e28:	fcf40f23          	sb	a5,-34(s0)
   10e2c:	fde44703          	lbu	a4,-34(s0)
   10e30:	fdf44783          	lbu	a5,-33(s0)
   10e34:	02f70e63          	beq	a4,a5,10e70 <_place_data+0x114>
   10e38:	fd442783          	lw	a5,-44(s0)
   10e3c:	fcc42703          	lw	a4,-52(s0)
   10e40:	00279793          	slli	a5,a5,0x2
   10e44:	00f707b3          	add	a5,a4,a5
   10e48:	00c7a683          	lw	a3,12(a5)
   10e4c:	fd042783          	lw	a5,-48(s0)
   10e50:	80000737          	lui	a4,0x80000
   10e54:	00f75733          	srl	a4,a4,a5
   10e58:	fd442783          	lw	a5,-44(s0)
   10e5c:	00e6e733          	or	a4,a3,a4
   10e60:	fcc42683          	lw	a3,-52(s0)
   10e64:	00279793          	slli	a5,a5,0x2
   10e68:	00f687b3          	add	a5,a3,a5
   10e6c:	00e7a623          	sw	a4,12(a5)
   10e70:	fd042783          	lw	a5,-48(s0)
   10e74:	fd442703          	lw	a4,-44(s0)
   10e78:	fe442603          	lw	a2,-28(s0)
   10e7c:	00070593          	mv	a1,a4
   10e80:	00078513          	mv	a0,a5
   10e84:	d89ff0ef          	jal	10c0c <zigzag_step>
   10e88:	00050713          	mv	a4,a0
   10e8c:	00058793          	mv	a5,a1
   10e90:	fce42823          	sw	a4,-48(s0)
   10e94:	fcf42a23          	sw	a5,-44(s0)
   10e98:	fe842783          	lw	a5,-24(s0)
   10e9c:	00178793          	addi	a5,a5,1
   10ea0:	fef42423          	sw	a5,-24(s0)
   10ea4:	fe842783          	lw	a5,-24(s0)
   10ea8:	fec42703          	lw	a4,-20(s0)
   10eac:	f2e7e2e3          	bltu	a5,a4,10dd0 <_place_data+0x74>
   10eb0:	00000013          	nop
   10eb4:	00000013          	nop
   10eb8:	03c12083          	lw	ra,60(sp)
   10ebc:	03812403          	lw	s0,56(sp)
   10ec0:	04010113          	addi	sp,sp,64
   10ec4:	00008067          	ret

00010ec8 <qr_encode>:
   10ec8:	f9010113          	addi	sp,sp,-112
   10ecc:	06112623          	sw	ra,108(sp)
   10ed0:	06812423          	sw	s0,104(sp)
   10ed4:	07010413          	addi	s0,sp,112
   10ed8:	f8a42e23          	sw	a0,-100(s0)
   10edc:	f9c42783          	lw	a5,-100(s0)
   10ee0:	02078c63          	beqz	a5,10f18 <qr_encode+0x50>
   10ee4:	fa840793          	addi	a5,s0,-88
   10ee8:	00078593          	mv	a1,a5
   10eec:	f9c42503          	lw	a0,-100(s0)
   10ef0:	869ff0ef          	jal	10758 <_serialize_data>
   10ef4:	fa840793          	addi	a5,s0,-88
   10ef8:	00078593          	mv	a1,a5
   10efc:	f9c42503          	lw	a0,-100(s0)
   10f00:	a7dff0ef          	jal	1097c <_reed_solomon>
   10f04:	fa840793          	addi	a5,s0,-88
   10f08:	00078593          	mv	a1,a5
   10f0c:	f9c42503          	lw	a0,-100(s0)
   10f10:	e4dff0ef          	jal	10d5c <_place_data>
   10f14:	0080006f          	j	10f1c <qr_encode+0x54>
   10f18:	00000013          	nop
   10f1c:	06c12083          	lw	ra,108(sp)
   10f20:	06812403          	lw	s0,104(sp)
   10f24:	07010113          	addi	sp,sp,112
   10f28:	00008067          	ret

00010f2c <dump_bmp>:
   10f2c:	fd010113          	addi	sp,sp,-48
   10f30:	02112623          	sw	ra,44(sp)
   10f34:	02812423          	sw	s0,40(sp)
   10f38:	03010413          	addi	s0,sp,48
   10f3c:	fca42e23          	sw	a0,-36(s0)
   10f40:	fe042623          	sw	zero,-20(s0)
   10f44:	01c0006f          	j	10f60 <dump_bmp+0x34>
   10f48:	000227b7          	lui	a5,0x22
   10f4c:	61878513          	addi	a0,a5,1560 # 22618 <__clzsi2+0x50>
   10f50:	618000ef          	jal	11568 <printf>
   10f54:	fec42783          	lw	a5,-20(s0)
   10f58:	00178793          	addi	a5,a5,1
   10f5c:	fef42623          	sw	a5,-20(s0)
   10f60:	fdc42783          	lw	a5,-36(s0)
   10f64:	0007c783          	lbu	a5,0(a5)
   10f68:	00178793          	addi	a5,a5,1
   10f6c:	fec42703          	lw	a4,-20(s0)
   10f70:	fce7dce3          	bge	a5,a4,10f48 <dump_bmp+0x1c>
   10f74:	00a00513          	li	a0,10
   10f78:	644000ef          	jal	115bc <putchar>
   10f7c:	fe042423          	sw	zero,-24(s0)
   10f80:	08c0006f          	j	1100c <dump_bmp+0xe0>
   10f84:	000227b7          	lui	a5,0x22
   10f88:	61878513          	addi	a0,a5,1560 # 22618 <__clzsi2+0x50>
   10f8c:	5dc000ef          	jal	11568 <printf>
   10f90:	fe042223          	sw	zero,-28(s0)
   10f94:	04c0006f          	j	10fe0 <dump_bmp+0xb4>
   10f98:	fe442783          	lw	a5,-28(s0)
   10f9c:	fe842703          	lw	a4,-24(s0)
   10fa0:	00070613          	mv	a2,a4
   10fa4:	00078593          	mv	a1,a5
   10fa8:	fdc42503          	lw	a0,-36(s0)
   10fac:	9dcff0ef          	jal	10188 <qr_getdot>
   10fb0:	00050793          	mv	a5,a0
   10fb4:	00078a63          	beqz	a5,10fc8 <dump_bmp+0x9c>
   10fb8:	000227b7          	lui	a5,0x22
   10fbc:	62078513          	addi	a0,a5,1568 # 22620 <__clzsi2+0x58>
   10fc0:	5a8000ef          	jal	11568 <printf>
   10fc4:	0100006f          	j	10fd4 <dump_bmp+0xa8>
   10fc8:	000227b7          	lui	a5,0x22
   10fcc:	61878513          	addi	a0,a5,1560 # 22618 <__clzsi2+0x50>
   10fd0:	598000ef          	jal	11568 <printf>
   10fd4:	fe442783          	lw	a5,-28(s0)
   10fd8:	00178793          	addi	a5,a5,1
   10fdc:	fef42223          	sw	a5,-28(s0)
   10fe0:	fdc42783          	lw	a5,-36(s0)
   10fe4:	0007c783          	lbu	a5,0(a5)
   10fe8:	00078713          	mv	a4,a5
   10fec:	fe442783          	lw	a5,-28(s0)
   10ff0:	fae7c4e3          	blt	a5,a4,10f98 <dump_bmp+0x6c>
   10ff4:	000227b7          	lui	a5,0x22
   10ff8:	61878513          	addi	a0,a5,1560 # 22618 <__clzsi2+0x50>
   10ffc:	6ac000ef          	jal	116a8 <puts>
   11000:	fe842783          	lw	a5,-24(s0)
   11004:	00178793          	addi	a5,a5,1
   11008:	fef42423          	sw	a5,-24(s0)
   1100c:	fdc42783          	lw	a5,-36(s0)
   11010:	0007c783          	lbu	a5,0(a5)
   11014:	00078713          	mv	a4,a5
   11018:	fe842783          	lw	a5,-24(s0)
   1101c:	f6e7c4e3          	blt	a5,a4,10f84 <dump_bmp+0x58>
   11020:	fe042023          	sw	zero,-32(s0)
   11024:	01c0006f          	j	11040 <dump_bmp+0x114>
   11028:	000227b7          	lui	a5,0x22
   1102c:	61878513          	addi	a0,a5,1560 # 22618 <__clzsi2+0x50>
   11030:	538000ef          	jal	11568 <printf>
   11034:	fe042783          	lw	a5,-32(s0)
   11038:	00178793          	addi	a5,a5,1
   1103c:	fef42023          	sw	a5,-32(s0)
   11040:	fdc42783          	lw	a5,-36(s0)
   11044:	0007c783          	lbu	a5,0(a5)
   11048:	00178793          	addi	a5,a5,1
   1104c:	fe042703          	lw	a4,-32(s0)
   11050:	fce7dce3          	bge	a5,a4,11028 <dump_bmp+0xfc>
   11054:	00a00513          	li	a0,10
   11058:	564000ef          	jal	115bc <putchar>
   1105c:	00000013          	nop
   11060:	02c12083          	lw	ra,44(sp)
   11064:	02812403          	lw	s0,40(sp)
   11068:	03010113          	addi	sp,sp,48
   1106c:	00008067          	ret

00011070 <main>:
   11070:	f5010113          	addi	sp,sp,-176
   11074:	0a112623          	sw	ra,172(sp)
   11078:	0a812423          	sw	s0,168(sp)
   1107c:	0b010413          	addi	s0,sp,176
   11080:	f4a42e23          	sw	a0,-164(s0)
   11084:	f4b42c23          	sw	a1,-168(s0)
   11088:	000227b7          	lui	a5,0x22
   1108c:	62478793          	addi	a5,a5,1572 # 22624 <__clzsi2+0x5c>
   11090:	fef42623          	sw	a5,-20(s0)
   11094:	fec42503          	lw	a0,-20(s0)
   11098:	379000ef          	jal	11c10 <strlen>
   1109c:	00050713          	mv	a4,a0
   110a0:	f6c40793          	addi	a5,s0,-148
   110a4:	00070693          	mv	a3,a4
   110a8:	fec42603          	lw	a2,-20(s0)
   110ac:	00300593          	li	a1,3
   110b0:	00078513          	mv	a0,a5
   110b4:	d5cff0ef          	jal	10610 <qr_eval>
   110b8:	00050793          	mv	a5,a0
   110bc:	0017c793          	xori	a5,a5,1
   110c0:	0ff7f793          	zext.b	a5,a5
   110c4:	00078c63          	beqz	a5,110dc <main+0x6c>
   110c8:	000227b7          	lui	a5,0x22
   110cc:	64c78513          	addi	a0,a5,1612 # 2264c <__clzsi2+0x84>
   110d0:	5d8000ef          	jal	116a8 <puts>
   110d4:	ffe00793          	li	a5,-2
   110d8:	0200006f          	j	110f8 <main+0x88>
   110dc:	f6c40793          	addi	a5,s0,-148
   110e0:	00078513          	mv	a0,a5
   110e4:	de5ff0ef          	jal	10ec8 <qr_encode>
   110e8:	f6c40793          	addi	a5,s0,-148
   110ec:	00078513          	mv	a0,a5
   110f0:	e3dff0ef          	jal	10f2c <dump_bmp>
   110f4:	00000793          	li	a5,0
   110f8:	00078513          	mv	a0,a5
   110fc:	0ac12083          	lw	ra,172(sp)
   11100:	0a812403          	lw	s0,168(sp)
   11104:	0b010113          	addi	sp,sp,176
   11108:	00008067          	ret

0001110c <__fp_lock>:
   1110c:	00000513          	li	a0,0
   11110:	00008067          	ret

00011114 <stdio_exit_handler>:
   11114:	00024637          	lui	a2,0x24
   11118:	000155b7          	lui	a1,0x15
   1111c:	00024537          	lui	a0,0x24
   11120:	1d860613          	addi	a2,a2,472 # 241d8 <__sglue>
   11124:	3ac58593          	addi	a1,a1,940 # 153ac <_fclose_r>
   11128:	1e850513          	addi	a0,a0,488 # 241e8 <_impure_data>
   1112c:	3480006f          	j	11474 <_fwalk_sglue>

00011130 <cleanup_stdio>:
   11130:	00452583          	lw	a1,4(a0)
   11134:	ff010113          	addi	sp,sp,-16
   11138:	00812423          	sw	s0,8(sp)
   1113c:	00112623          	sw	ra,12(sp)
   11140:	f5418793          	addi	a5,gp,-172 # 2492c <__sf>
   11144:	00050413          	mv	s0,a0
   11148:	00f58463          	beq	a1,a5,11150 <cleanup_stdio+0x20>
   1114c:	260040ef          	jal	153ac <_fclose_r>
   11150:	00842583          	lw	a1,8(s0)
   11154:	fbc18793          	addi	a5,gp,-68 # 24994 <__sf+0x68>
   11158:	00f58663          	beq	a1,a5,11164 <cleanup_stdio+0x34>
   1115c:	00040513          	mv	a0,s0
   11160:	24c040ef          	jal	153ac <_fclose_r>
   11164:	00c42583          	lw	a1,12(s0)
   11168:	02418793          	addi	a5,gp,36 # 249fc <__global_pointer$+0x24>
   1116c:	00f58c63          	beq	a1,a5,11184 <cleanup_stdio+0x54>
   11170:	00040513          	mv	a0,s0
   11174:	00812403          	lw	s0,8(sp)
   11178:	00c12083          	lw	ra,12(sp)
   1117c:	01010113          	addi	sp,sp,16
   11180:	22c0406f          	j	153ac <_fclose_r>
   11184:	00c12083          	lw	ra,12(sp)
   11188:	00812403          	lw	s0,8(sp)
   1118c:	01010113          	addi	sp,sp,16
   11190:	00008067          	ret

00011194 <__fp_unlock>:
   11194:	00000513          	li	a0,0
   11198:	00008067          	ret

0001119c <global_stdio_init.part.0>:
   1119c:	fe010113          	addi	sp,sp,-32
   111a0:	000117b7          	lui	a5,0x11
   111a4:	00812c23          	sw	s0,24(sp)
   111a8:	11478793          	addi	a5,a5,276 # 11114 <stdio_exit_handler>
   111ac:	f5418413          	addi	s0,gp,-172 # 2492c <__sf>
   111b0:	00112e23          	sw	ra,28(sp)
   111b4:	00912a23          	sw	s1,20(sp)
   111b8:	01212823          	sw	s2,16(sp)
   111bc:	01312623          	sw	s3,12(sp)
   111c0:	01412423          	sw	s4,8(sp)
   111c4:	f0f1ac23          	sw	a5,-232(gp) # 248f0 <__stdio_exit_handler>
   111c8:	00800613          	li	a2,8
   111cc:	00400793          	li	a5,4
   111d0:	00000593          	li	a1,0
   111d4:	fb018513          	addi	a0,gp,-80 # 24988 <__sf+0x5c>
   111d8:	00f42623          	sw	a5,12(s0)
   111dc:	00042023          	sw	zero,0(s0)
   111e0:	00042223          	sw	zero,4(s0)
   111e4:	00042423          	sw	zero,8(s0)
   111e8:	06042223          	sw	zero,100(s0)
   111ec:	00042823          	sw	zero,16(s0)
   111f0:	00042a23          	sw	zero,20(s0)
   111f4:	00042c23          	sw	zero,24(s0)
   111f8:	13d000ef          	jal	11b34 <memset>
   111fc:	000107b7          	lui	a5,0x10
   11200:	00011a37          	lui	s4,0x11
   11204:	000119b7          	lui	s3,0x11
   11208:	00011937          	lui	s2,0x11
   1120c:	000124b7          	lui	s1,0x12
   11210:	6b4a0a13          	addi	s4,s4,1716 # 116b4 <__sread>
   11214:	71898993          	addi	s3,s3,1816 # 11718 <__swrite>
   11218:	7a090913          	addi	s2,s2,1952 # 117a0 <__sseek>
   1121c:	81848493          	addi	s1,s1,-2024 # 11818 <__sclose>
   11220:	00978793          	addi	a5,a5,9 # 10009 <exit-0x8b>
   11224:	00800613          	li	a2,8
   11228:	00000593          	li	a1,0
   1122c:	01818513          	addi	a0,gp,24 # 249f0 <__global_pointer$+0x18>
   11230:	03442023          	sw	s4,32(s0)
   11234:	03342223          	sw	s3,36(s0)
   11238:	03242423          	sw	s2,40(s0)
   1123c:	02942623          	sw	s1,44(s0)
   11240:	06f42a23          	sw	a5,116(s0)
   11244:	00842e23          	sw	s0,28(s0)
   11248:	06042423          	sw	zero,104(s0)
   1124c:	06042623          	sw	zero,108(s0)
   11250:	06042823          	sw	zero,112(s0)
   11254:	0c042623          	sw	zero,204(s0)
   11258:	06042c23          	sw	zero,120(s0)
   1125c:	06042e23          	sw	zero,124(s0)
   11260:	08042023          	sw	zero,128(s0)
   11264:	0d1000ef          	jal	11b34 <memset>
   11268:	000207b7          	lui	a5,0x20
   1126c:	01278793          	addi	a5,a5,18 # 20012 <__multf3+0x896>
   11270:	fbc18713          	addi	a4,gp,-68 # 24994 <__sf+0x68>
   11274:	00800613          	li	a2,8
   11278:	00000593          	li	a1,0
   1127c:	08018513          	addi	a0,gp,128 # 24a58 <__global_pointer$+0x80>
   11280:	09442423          	sw	s4,136(s0)
   11284:	09342623          	sw	s3,140(s0)
   11288:	09242823          	sw	s2,144(s0)
   1128c:	08942a23          	sw	s1,148(s0)
   11290:	0cf42e23          	sw	a5,220(s0)
   11294:	08e42223          	sw	a4,132(s0)
   11298:	0c042823          	sw	zero,208(s0)
   1129c:	0c042a23          	sw	zero,212(s0)
   112a0:	0c042c23          	sw	zero,216(s0)
   112a4:	12042a23          	sw	zero,308(s0)
   112a8:	0e042023          	sw	zero,224(s0)
   112ac:	0e042223          	sw	zero,228(s0)
   112b0:	0e042423          	sw	zero,232(s0)
   112b4:	081000ef          	jal	11b34 <memset>
   112b8:	02418793          	addi	a5,gp,36 # 249fc <__global_pointer$+0x24>
   112bc:	0f442823          	sw	s4,240(s0)
   112c0:	0f342a23          	sw	s3,244(s0)
   112c4:	0f242c23          	sw	s2,248(s0)
   112c8:	0e942e23          	sw	s1,252(s0)
   112cc:	01c12083          	lw	ra,28(sp)
   112d0:	0ef42623          	sw	a5,236(s0)
   112d4:	01812403          	lw	s0,24(sp)
   112d8:	01412483          	lw	s1,20(sp)
   112dc:	01012903          	lw	s2,16(sp)
   112e0:	00c12983          	lw	s3,12(sp)
   112e4:	00812a03          	lw	s4,8(sp)
   112e8:	02010113          	addi	sp,sp,32
   112ec:	00008067          	ret

000112f0 <__sfp>:
   112f0:	f181a783          	lw	a5,-232(gp) # 248f0 <__stdio_exit_handler>
   112f4:	fe010113          	addi	sp,sp,-32
   112f8:	01312623          	sw	s3,12(sp)
   112fc:	00112e23          	sw	ra,28(sp)
   11300:	00812c23          	sw	s0,24(sp)
   11304:	00912a23          	sw	s1,20(sp)
   11308:	01212823          	sw	s2,16(sp)
   1130c:	00050993          	mv	s3,a0
   11310:	0e078863          	beqz	a5,11400 <__sfp+0x110>
   11314:	00024937          	lui	s2,0x24
   11318:	1d890913          	addi	s2,s2,472 # 241d8 <__sglue>
   1131c:	fff00493          	li	s1,-1
   11320:	00492783          	lw	a5,4(s2)
   11324:	00892403          	lw	s0,8(s2)
   11328:	fff78793          	addi	a5,a5,-1
   1132c:	0007d863          	bgez	a5,1133c <__sfp+0x4c>
   11330:	0800006f          	j	113b0 <__sfp+0xc0>
   11334:	06840413          	addi	s0,s0,104
   11338:	06978c63          	beq	a5,s1,113b0 <__sfp+0xc0>
   1133c:	00c41703          	lh	a4,12(s0)
   11340:	fff78793          	addi	a5,a5,-1
   11344:	fe0718e3          	bnez	a4,11334 <__sfp+0x44>
   11348:	ffff07b7          	lui	a5,0xffff0
   1134c:	00178793          	addi	a5,a5,1 # ffff0001 <__BSS_END__+0xfffcb3e5>
   11350:	00f42623          	sw	a5,12(s0)
   11354:	06042223          	sw	zero,100(s0)
   11358:	00042023          	sw	zero,0(s0)
   1135c:	00042423          	sw	zero,8(s0)
   11360:	00042223          	sw	zero,4(s0)
   11364:	00042823          	sw	zero,16(s0)
   11368:	00042a23          	sw	zero,20(s0)
   1136c:	00042c23          	sw	zero,24(s0)
   11370:	00800613          	li	a2,8
   11374:	00000593          	li	a1,0
   11378:	05c40513          	addi	a0,s0,92
   1137c:	7b8000ef          	jal	11b34 <memset>
   11380:	02042823          	sw	zero,48(s0)
   11384:	02042a23          	sw	zero,52(s0)
   11388:	04042223          	sw	zero,68(s0)
   1138c:	04042423          	sw	zero,72(s0)
   11390:	01c12083          	lw	ra,28(sp)
   11394:	00040513          	mv	a0,s0
   11398:	01812403          	lw	s0,24(sp)
   1139c:	01412483          	lw	s1,20(sp)
   113a0:	01012903          	lw	s2,16(sp)
   113a4:	00c12983          	lw	s3,12(sp)
   113a8:	02010113          	addi	sp,sp,32
   113ac:	00008067          	ret
   113b0:	00092403          	lw	s0,0(s2)
   113b4:	00040663          	beqz	s0,113c0 <__sfp+0xd0>
   113b8:	00040913          	mv	s2,s0
   113bc:	f65ff06f          	j	11320 <__sfp+0x30>
   113c0:	1ac00593          	li	a1,428
   113c4:	00098513          	mv	a0,s3
   113c8:	659000ef          	jal	12220 <_malloc_r>
   113cc:	00050413          	mv	s0,a0
   113d0:	02050c63          	beqz	a0,11408 <__sfp+0x118>
   113d4:	00c50513          	addi	a0,a0,12
   113d8:	00400793          	li	a5,4
   113dc:	00042023          	sw	zero,0(s0)
   113e0:	00f42223          	sw	a5,4(s0)
   113e4:	00a42423          	sw	a0,8(s0)
   113e8:	1a000613          	li	a2,416
   113ec:	00000593          	li	a1,0
   113f0:	744000ef          	jal	11b34 <memset>
   113f4:	00892023          	sw	s0,0(s2)
   113f8:	00040913          	mv	s2,s0
   113fc:	f25ff06f          	j	11320 <__sfp+0x30>
   11400:	d9dff0ef          	jal	1119c <global_stdio_init.part.0>
   11404:	f11ff06f          	j	11314 <__sfp+0x24>
   11408:	00092023          	sw	zero,0(s2)
   1140c:	00c00793          	li	a5,12
   11410:	00f9a023          	sw	a5,0(s3)
   11414:	f7dff06f          	j	11390 <__sfp+0xa0>

00011418 <__sinit>:
   11418:	03452783          	lw	a5,52(a0)
   1141c:	00078463          	beqz	a5,11424 <__sinit+0xc>
   11420:	00008067          	ret
   11424:	f181a703          	lw	a4,-232(gp) # 248f0 <__stdio_exit_handler>
   11428:	000117b7          	lui	a5,0x11
   1142c:	13078793          	addi	a5,a5,304 # 11130 <cleanup_stdio>
   11430:	02f52a23          	sw	a5,52(a0)
   11434:	fe0716e3          	bnez	a4,11420 <__sinit+0x8>
   11438:	d65ff06f          	j	1119c <global_stdio_init.part.0>

0001143c <__sfp_lock_acquire>:
   1143c:	00008067          	ret

00011440 <__sfp_lock_release>:
   11440:	00008067          	ret

00011444 <__fp_lock_all>:
   11444:	00024637          	lui	a2,0x24
   11448:	000115b7          	lui	a1,0x11
   1144c:	1d860613          	addi	a2,a2,472 # 241d8 <__sglue>
   11450:	10c58593          	addi	a1,a1,268 # 1110c <__fp_lock>
   11454:	00000513          	li	a0,0
   11458:	01c0006f          	j	11474 <_fwalk_sglue>

0001145c <__fp_unlock_all>:
   1145c:	00024637          	lui	a2,0x24
   11460:	000115b7          	lui	a1,0x11
   11464:	1d860613          	addi	a2,a2,472 # 241d8 <__sglue>
   11468:	19458593          	addi	a1,a1,404 # 11194 <__fp_unlock>
   1146c:	00000513          	li	a0,0
   11470:	0040006f          	j	11474 <_fwalk_sglue>

00011474 <_fwalk_sglue>:
   11474:	fd010113          	addi	sp,sp,-48
   11478:	03212023          	sw	s2,32(sp)
   1147c:	01312e23          	sw	s3,28(sp)
   11480:	01412c23          	sw	s4,24(sp)
   11484:	01512a23          	sw	s5,20(sp)
   11488:	01612823          	sw	s6,16(sp)
   1148c:	01712623          	sw	s7,12(sp)
   11490:	02112623          	sw	ra,44(sp)
   11494:	02812423          	sw	s0,40(sp)
   11498:	02912223          	sw	s1,36(sp)
   1149c:	00050b13          	mv	s6,a0
   114a0:	00058b93          	mv	s7,a1
   114a4:	00060a93          	mv	s5,a2
   114a8:	00000a13          	li	s4,0
   114ac:	00100993          	li	s3,1
   114b0:	fff00913          	li	s2,-1
   114b4:	004aa483          	lw	s1,4(s5)
   114b8:	008aa403          	lw	s0,8(s5)
   114bc:	fff48493          	addi	s1,s1,-1
   114c0:	0204c863          	bltz	s1,114f0 <_fwalk_sglue+0x7c>
   114c4:	00c45783          	lhu	a5,12(s0)
   114c8:	00f9fe63          	bgeu	s3,a5,114e4 <_fwalk_sglue+0x70>
   114cc:	00e41783          	lh	a5,14(s0)
   114d0:	00040593          	mv	a1,s0
   114d4:	000b0513          	mv	a0,s6
   114d8:	01278663          	beq	a5,s2,114e4 <_fwalk_sglue+0x70>
   114dc:	000b80e7          	jalr	s7
   114e0:	00aa6a33          	or	s4,s4,a0
   114e4:	fff48493          	addi	s1,s1,-1
   114e8:	06840413          	addi	s0,s0,104
   114ec:	fd249ce3          	bne	s1,s2,114c4 <_fwalk_sglue+0x50>
   114f0:	000aaa83          	lw	s5,0(s5)
   114f4:	fc0a90e3          	bnez	s5,114b4 <_fwalk_sglue+0x40>
   114f8:	02c12083          	lw	ra,44(sp)
   114fc:	02812403          	lw	s0,40(sp)
   11500:	02412483          	lw	s1,36(sp)
   11504:	02012903          	lw	s2,32(sp)
   11508:	01c12983          	lw	s3,28(sp)
   1150c:	01412a83          	lw	s5,20(sp)
   11510:	01012b03          	lw	s6,16(sp)
   11514:	00c12b83          	lw	s7,12(sp)
   11518:	000a0513          	mv	a0,s4
   1151c:	01812a03          	lw	s4,24(sp)
   11520:	03010113          	addi	sp,sp,48
   11524:	00008067          	ret

00011528 <_printf_r>:
   11528:	fc010113          	addi	sp,sp,-64
   1152c:	02c12423          	sw	a2,40(sp)
   11530:	02d12623          	sw	a3,44(sp)
   11534:	02e12823          	sw	a4,48(sp)
   11538:	02f12a23          	sw	a5,52(sp)
   1153c:	03012c23          	sw	a6,56(sp)
   11540:	03112e23          	sw	a7,60(sp)
   11544:	00058613          	mv	a2,a1
   11548:	00852583          	lw	a1,8(a0)
   1154c:	02810693          	addi	a3,sp,40
   11550:	00112e23          	sw	ra,28(sp)
   11554:	00d12623          	sw	a3,12(sp)
   11558:	48c010ef          	jal	129e4 <_vfprintf_r>
   1155c:	01c12083          	lw	ra,28(sp)
   11560:	04010113          	addi	sp,sp,64
   11564:	00008067          	ret

00011568 <printf>:
   11568:	f0c1a303          	lw	t1,-244(gp) # 248e4 <_impure_ptr>
   1156c:	fc010113          	addi	sp,sp,-64
   11570:	02c12423          	sw	a2,40(sp)
   11574:	02d12623          	sw	a3,44(sp)
   11578:	02b12223          	sw	a1,36(sp)
   1157c:	02e12823          	sw	a4,48(sp)
   11580:	02f12a23          	sw	a5,52(sp)
   11584:	03012c23          	sw	a6,56(sp)
   11588:	03112e23          	sw	a7,60(sp)
   1158c:	00832583          	lw	a1,8(t1) # 10184 <frame_dummy+0x1c>
   11590:	02410693          	addi	a3,sp,36
   11594:	00050613          	mv	a2,a0
   11598:	00030513          	mv	a0,t1
   1159c:	00112e23          	sw	ra,28(sp)
   115a0:	00d12623          	sw	a3,12(sp)
   115a4:	440010ef          	jal	129e4 <_vfprintf_r>
   115a8:	01c12083          	lw	ra,28(sp)
   115ac:	04010113          	addi	sp,sp,64
   115b0:	00008067          	ret

000115b4 <_putchar_r>:
   115b4:	00852603          	lw	a2,8(a0)
   115b8:	74c0406f          	j	15d04 <_putc_r>

000115bc <putchar>:
   115bc:	f0c1a783          	lw	a5,-244(gp) # 248e4 <_impure_ptr>
   115c0:	00050593          	mv	a1,a0
   115c4:	0087a603          	lw	a2,8(a5)
   115c8:	00078513          	mv	a0,a5
   115cc:	7380406f          	j	15d04 <_putc_r>

000115d0 <_puts_r>:
   115d0:	fc010113          	addi	sp,sp,-64
   115d4:	02812c23          	sw	s0,56(sp)
   115d8:	00050413          	mv	s0,a0
   115dc:	00058513          	mv	a0,a1
   115e0:	02912a23          	sw	s1,52(sp)
   115e4:	02112e23          	sw	ra,60(sp)
   115e8:	00058493          	mv	s1,a1
   115ec:	624000ef          	jal	11c10 <strlen>
   115f0:	000237b7          	lui	a5,0x23
   115f4:	8ac78793          	addi	a5,a5,-1876 # 228ac <_luts.0+0x200>
   115f8:	02f12423          	sw	a5,40(sp)
   115fc:	00100793          	li	a5,1
   11600:	02f12623          	sw	a5,44(sp)
   11604:	03442703          	lw	a4,52(s0)
   11608:	02010793          	addi	a5,sp,32
   1160c:	00150693          	addi	a3,a0,1
   11610:	00f12a23          	sw	a5,20(sp)
   11614:	00200793          	li	a5,2
   11618:	02912023          	sw	s1,32(sp)
   1161c:	02a12223          	sw	a0,36(sp)
   11620:	00d12e23          	sw	a3,28(sp)
   11624:	00f12c23          	sw	a5,24(sp)
   11628:	00842583          	lw	a1,8(s0)
   1162c:	06070063          	beqz	a4,1168c <_puts_r+0xbc>
   11630:	00c59703          	lh	a4,12(a1)
   11634:	0645a783          	lw	a5,100(a1)
   11638:	01271693          	slli	a3,a4,0x12
   1163c:	0206c063          	bltz	a3,1165c <_puts_r+0x8c>
   11640:	ffffe6b7          	lui	a3,0xffffe
   11644:	fff68693          	addi	a3,a3,-1 # ffffdfff <__BSS_END__+0xfffd93e3>
   11648:	00002637          	lui	a2,0x2
   1164c:	00c76733          	or	a4,a4,a2
   11650:	00d7f7b3          	and	a5,a5,a3
   11654:	00e59623          	sh	a4,12(a1)
   11658:	06f5a223          	sw	a5,100(a1)
   1165c:	01279713          	slli	a4,a5,0x12
   11660:	04074063          	bltz	a4,116a0 <_puts_r+0xd0>
   11664:	01410613          	addi	a2,sp,20
   11668:	00040513          	mv	a0,s0
   1166c:	184040ef          	jal	157f0 <__sfvwrite_r>
   11670:	02051863          	bnez	a0,116a0 <_puts_r+0xd0>
   11674:	00a00513          	li	a0,10
   11678:	03c12083          	lw	ra,60(sp)
   1167c:	03812403          	lw	s0,56(sp)
   11680:	03412483          	lw	s1,52(sp)
   11684:	04010113          	addi	sp,sp,64
   11688:	00008067          	ret
   1168c:	00040513          	mv	a0,s0
   11690:	00b12623          	sw	a1,12(sp)
   11694:	d85ff0ef          	jal	11418 <__sinit>
   11698:	00c12583          	lw	a1,12(sp)
   1169c:	f95ff06f          	j	11630 <_puts_r+0x60>
   116a0:	fff00513          	li	a0,-1
   116a4:	fd5ff06f          	j	11678 <_puts_r+0xa8>

000116a8 <puts>:
   116a8:	00050593          	mv	a1,a0
   116ac:	f0c1a503          	lw	a0,-244(gp) # 248e4 <_impure_ptr>
   116b0:	f21ff06f          	j	115d0 <_puts_r>

000116b4 <__sread>:
   116b4:	ff010113          	addi	sp,sp,-16
   116b8:	00812423          	sw	s0,8(sp)
   116bc:	00058413          	mv	s0,a1
   116c0:	00e59583          	lh	a1,14(a1)
   116c4:	00112623          	sw	ra,12(sp)
   116c8:	300000ef          	jal	119c8 <_read_r>
   116cc:	02054063          	bltz	a0,116ec <__sread+0x38>
   116d0:	05042783          	lw	a5,80(s0)
   116d4:	00c12083          	lw	ra,12(sp)
   116d8:	00a787b3          	add	a5,a5,a0
   116dc:	04f42823          	sw	a5,80(s0)
   116e0:	00812403          	lw	s0,8(sp)
   116e4:	01010113          	addi	sp,sp,16
   116e8:	00008067          	ret
   116ec:	00c45783          	lhu	a5,12(s0)
   116f0:	fffff737          	lui	a4,0xfffff
   116f4:	fff70713          	addi	a4,a4,-1 # ffffefff <__BSS_END__+0xfffda3e3>
   116f8:	00e7f7b3          	and	a5,a5,a4
   116fc:	00c12083          	lw	ra,12(sp)
   11700:	00f41623          	sh	a5,12(s0)
   11704:	00812403          	lw	s0,8(sp)
   11708:	01010113          	addi	sp,sp,16
   1170c:	00008067          	ret

00011710 <__seofread>:
   11710:	00000513          	li	a0,0
   11714:	00008067          	ret

00011718 <__swrite>:
   11718:	00c59783          	lh	a5,12(a1)
   1171c:	fe010113          	addi	sp,sp,-32
   11720:	00812c23          	sw	s0,24(sp)
   11724:	00912a23          	sw	s1,20(sp)
   11728:	01212823          	sw	s2,16(sp)
   1172c:	01312623          	sw	s3,12(sp)
   11730:	00112e23          	sw	ra,28(sp)
   11734:	1007f713          	andi	a4,a5,256
   11738:	00058413          	mv	s0,a1
   1173c:	00050493          	mv	s1,a0
   11740:	00060913          	mv	s2,a2
   11744:	00068993          	mv	s3,a3
   11748:	04071063          	bnez	a4,11788 <__swrite+0x70>
   1174c:	fffff737          	lui	a4,0xfffff
   11750:	fff70713          	addi	a4,a4,-1 # ffffefff <__BSS_END__+0xfffda3e3>
   11754:	00e7f7b3          	and	a5,a5,a4
   11758:	00e41583          	lh	a1,14(s0)
   1175c:	00f41623          	sh	a5,12(s0)
   11760:	01812403          	lw	s0,24(sp)
   11764:	01c12083          	lw	ra,28(sp)
   11768:	00098693          	mv	a3,s3
   1176c:	00090613          	mv	a2,s2
   11770:	00c12983          	lw	s3,12(sp)
   11774:	01012903          	lw	s2,16(sp)
   11778:	00048513          	mv	a0,s1
   1177c:	01412483          	lw	s1,20(sp)
   11780:	02010113          	addi	sp,sp,32
   11784:	2ac0006f          	j	11a30 <_write_r>
   11788:	00e59583          	lh	a1,14(a1)
   1178c:	00200693          	li	a3,2
   11790:	00000613          	li	a2,0
   11794:	1cc000ef          	jal	11960 <_lseek_r>
   11798:	00c41783          	lh	a5,12(s0)
   1179c:	fb1ff06f          	j	1174c <__swrite+0x34>

000117a0 <__sseek>:
   117a0:	ff010113          	addi	sp,sp,-16
   117a4:	00812423          	sw	s0,8(sp)
   117a8:	00058413          	mv	s0,a1
   117ac:	00e59583          	lh	a1,14(a1)
   117b0:	00112623          	sw	ra,12(sp)
   117b4:	1ac000ef          	jal	11960 <_lseek_r>
   117b8:	fff00793          	li	a5,-1
   117bc:	02f50863          	beq	a0,a5,117ec <__sseek+0x4c>
   117c0:	00c45783          	lhu	a5,12(s0)
   117c4:	00001737          	lui	a4,0x1
   117c8:	00c12083          	lw	ra,12(sp)
   117cc:	00e7e7b3          	or	a5,a5,a4
   117d0:	01079793          	slli	a5,a5,0x10
   117d4:	4107d793          	srai	a5,a5,0x10
   117d8:	04a42823          	sw	a0,80(s0)
   117dc:	00f41623          	sh	a5,12(s0)
   117e0:	00812403          	lw	s0,8(sp)
   117e4:	01010113          	addi	sp,sp,16
   117e8:	00008067          	ret
   117ec:	00c45783          	lhu	a5,12(s0)
   117f0:	fffff737          	lui	a4,0xfffff
   117f4:	fff70713          	addi	a4,a4,-1 # ffffefff <__BSS_END__+0xfffda3e3>
   117f8:	00e7f7b3          	and	a5,a5,a4
   117fc:	01079793          	slli	a5,a5,0x10
   11800:	4107d793          	srai	a5,a5,0x10
   11804:	00c12083          	lw	ra,12(sp)
   11808:	00f41623          	sh	a5,12(s0)
   1180c:	00812403          	lw	s0,8(sp)
   11810:	01010113          	addi	sp,sp,16
   11814:	00008067          	ret

00011818 <__sclose>:
   11818:	00e59583          	lh	a1,14(a1)
   1181c:	0040006f          	j	11820 <_close_r>

00011820 <_close_r>:
   11820:	ff010113          	addi	sp,sp,-16
   11824:	00812423          	sw	s0,8(sp)
   11828:	00912223          	sw	s1,4(sp)
   1182c:	00050413          	mv	s0,a0
   11830:	00058513          	mv	a0,a1
   11834:	00112623          	sw	ra,12(sp)
   11838:	f001ae23          	sw	zero,-228(gp) # 248f4 <errno>
   1183c:	51d0a0ef          	jal	1c558 <_close>
   11840:	fff00793          	li	a5,-1
   11844:	00f50c63          	beq	a0,a5,1185c <_close_r+0x3c>
   11848:	00c12083          	lw	ra,12(sp)
   1184c:	00812403          	lw	s0,8(sp)
   11850:	00412483          	lw	s1,4(sp)
   11854:	01010113          	addi	sp,sp,16
   11858:	00008067          	ret
   1185c:	f1c1a783          	lw	a5,-228(gp) # 248f4 <errno>
   11860:	fe0784e3          	beqz	a5,11848 <_close_r+0x28>
   11864:	00c12083          	lw	ra,12(sp)
   11868:	00f42023          	sw	a5,0(s0)
   1186c:	00812403          	lw	s0,8(sp)
   11870:	00412483          	lw	s1,4(sp)
   11874:	01010113          	addi	sp,sp,16
   11878:	00008067          	ret

0001187c <_reclaim_reent>:
   1187c:	f0c1a783          	lw	a5,-244(gp) # 248e4 <_impure_ptr>
   11880:	0ca78e63          	beq	a5,a0,1195c <_reclaim_reent+0xe0>
   11884:	04452583          	lw	a1,68(a0)
   11888:	fe010113          	addi	sp,sp,-32
   1188c:	00912a23          	sw	s1,20(sp)
   11890:	00112e23          	sw	ra,28(sp)
   11894:	00812c23          	sw	s0,24(sp)
   11898:	00050493          	mv	s1,a0
   1189c:	04058863          	beqz	a1,118ec <_reclaim_reent+0x70>
   118a0:	01212823          	sw	s2,16(sp)
   118a4:	01312623          	sw	s3,12(sp)
   118a8:	00000913          	li	s2,0
   118ac:	08000993          	li	s3,128
   118b0:	012587b3          	add	a5,a1,s2
   118b4:	0007a403          	lw	s0,0(a5)
   118b8:	00040e63          	beqz	s0,118d4 <_reclaim_reent+0x58>
   118bc:	00040593          	mv	a1,s0
   118c0:	00042403          	lw	s0,0(s0)
   118c4:	00048513          	mv	a0,s1
   118c8:	654000ef          	jal	11f1c <_free_r>
   118cc:	fe0418e3          	bnez	s0,118bc <_reclaim_reent+0x40>
   118d0:	0444a583          	lw	a1,68(s1)
   118d4:	00490913          	addi	s2,s2,4
   118d8:	fd391ce3          	bne	s2,s3,118b0 <_reclaim_reent+0x34>
   118dc:	00048513          	mv	a0,s1
   118e0:	63c000ef          	jal	11f1c <_free_r>
   118e4:	01012903          	lw	s2,16(sp)
   118e8:	00c12983          	lw	s3,12(sp)
   118ec:	0384a583          	lw	a1,56(s1)
   118f0:	00058663          	beqz	a1,118fc <_reclaim_reent+0x80>
   118f4:	00048513          	mv	a0,s1
   118f8:	624000ef          	jal	11f1c <_free_r>
   118fc:	0404a403          	lw	s0,64(s1)
   11900:	00040c63          	beqz	s0,11918 <_reclaim_reent+0x9c>
   11904:	00040593          	mv	a1,s0
   11908:	00042403          	lw	s0,0(s0)
   1190c:	00048513          	mv	a0,s1
   11910:	60c000ef          	jal	11f1c <_free_r>
   11914:	fe0418e3          	bnez	s0,11904 <_reclaim_reent+0x88>
   11918:	04c4a583          	lw	a1,76(s1)
   1191c:	00058663          	beqz	a1,11928 <_reclaim_reent+0xac>
   11920:	00048513          	mv	a0,s1
   11924:	5f8000ef          	jal	11f1c <_free_r>
   11928:	0344a783          	lw	a5,52(s1)
   1192c:	00078e63          	beqz	a5,11948 <_reclaim_reent+0xcc>
   11930:	01812403          	lw	s0,24(sp)
   11934:	01c12083          	lw	ra,28(sp)
   11938:	00048513          	mv	a0,s1
   1193c:	01412483          	lw	s1,20(sp)
   11940:	02010113          	addi	sp,sp,32
   11944:	00078067          	jr	a5
   11948:	01c12083          	lw	ra,28(sp)
   1194c:	01812403          	lw	s0,24(sp)
   11950:	01412483          	lw	s1,20(sp)
   11954:	02010113          	addi	sp,sp,32
   11958:	00008067          	ret
   1195c:	00008067          	ret

00011960 <_lseek_r>:
   11960:	ff010113          	addi	sp,sp,-16
   11964:	00058713          	mv	a4,a1
   11968:	00812423          	sw	s0,8(sp)
   1196c:	00912223          	sw	s1,4(sp)
   11970:	00060593          	mv	a1,a2
   11974:	00050413          	mv	s0,a0
   11978:	00068613          	mv	a2,a3
   1197c:	00070513          	mv	a0,a4
   11980:	00112623          	sw	ra,12(sp)
   11984:	f001ae23          	sw	zero,-228(gp) # 248f4 <errno>
   11988:	5110a0ef          	jal	1c698 <_lseek>
   1198c:	fff00793          	li	a5,-1
   11990:	00f50c63          	beq	a0,a5,119a8 <_lseek_r+0x48>
   11994:	00c12083          	lw	ra,12(sp)
   11998:	00812403          	lw	s0,8(sp)
   1199c:	00412483          	lw	s1,4(sp)
   119a0:	01010113          	addi	sp,sp,16
   119a4:	00008067          	ret
   119a8:	f1c1a783          	lw	a5,-228(gp) # 248f4 <errno>
   119ac:	fe0784e3          	beqz	a5,11994 <_lseek_r+0x34>
   119b0:	00c12083          	lw	ra,12(sp)
   119b4:	00f42023          	sw	a5,0(s0)
   119b8:	00812403          	lw	s0,8(sp)
   119bc:	00412483          	lw	s1,4(sp)
   119c0:	01010113          	addi	sp,sp,16
   119c4:	00008067          	ret

000119c8 <_read_r>:
   119c8:	ff010113          	addi	sp,sp,-16
   119cc:	00058713          	mv	a4,a1
   119d0:	00812423          	sw	s0,8(sp)
   119d4:	00912223          	sw	s1,4(sp)
   119d8:	00060593          	mv	a1,a2
   119dc:	00050413          	mv	s0,a0
   119e0:	00068613          	mv	a2,a3
   119e4:	00070513          	mv	a0,a4
   119e8:	00112623          	sw	ra,12(sp)
   119ec:	f001ae23          	sw	zero,-228(gp) # 248f4 <errno>
   119f0:	4ed0a0ef          	jal	1c6dc <_read>
   119f4:	fff00793          	li	a5,-1
   119f8:	00f50c63          	beq	a0,a5,11a10 <_read_r+0x48>
   119fc:	00c12083          	lw	ra,12(sp)
   11a00:	00812403          	lw	s0,8(sp)
   11a04:	00412483          	lw	s1,4(sp)
   11a08:	01010113          	addi	sp,sp,16
   11a0c:	00008067          	ret
   11a10:	f1c1a783          	lw	a5,-228(gp) # 248f4 <errno>
   11a14:	fe0784e3          	beqz	a5,119fc <_read_r+0x34>
   11a18:	00c12083          	lw	ra,12(sp)
   11a1c:	00f42023          	sw	a5,0(s0)
   11a20:	00812403          	lw	s0,8(sp)
   11a24:	00412483          	lw	s1,4(sp)
   11a28:	01010113          	addi	sp,sp,16
   11a2c:	00008067          	ret

00011a30 <_write_r>:
   11a30:	ff010113          	addi	sp,sp,-16
   11a34:	00058713          	mv	a4,a1
   11a38:	00812423          	sw	s0,8(sp)
   11a3c:	00912223          	sw	s1,4(sp)
   11a40:	00060593          	mv	a1,a2
   11a44:	00050413          	mv	s0,a0
   11a48:	00068613          	mv	a2,a3
   11a4c:	00070513          	mv	a0,a4
   11a50:	00112623          	sw	ra,12(sp)
   11a54:	f001ae23          	sw	zero,-228(gp) # 248f4 <errno>
   11a58:	5410a0ef          	jal	1c798 <_write>
   11a5c:	fff00793          	li	a5,-1
   11a60:	00f50c63          	beq	a0,a5,11a78 <_write_r+0x48>
   11a64:	00c12083          	lw	ra,12(sp)
   11a68:	00812403          	lw	s0,8(sp)
   11a6c:	00412483          	lw	s1,4(sp)
   11a70:	01010113          	addi	sp,sp,16
   11a74:	00008067          	ret
   11a78:	f1c1a783          	lw	a5,-228(gp) # 248f4 <errno>
   11a7c:	fe0784e3          	beqz	a5,11a64 <_write_r+0x34>
   11a80:	00c12083          	lw	ra,12(sp)
   11a84:	00f42023          	sw	a5,0(s0)
   11a88:	00812403          	lw	s0,8(sp)
   11a8c:	00412483          	lw	s1,4(sp)
   11a90:	01010113          	addi	sp,sp,16
   11a94:	00008067          	ret

00011a98 <__libc_init_array>:
   11a98:	ff010113          	addi	sp,sp,-16
   11a9c:	00812423          	sw	s0,8(sp)
   11aa0:	000247b7          	lui	a5,0x24
   11aa4:	00024437          	lui	s0,0x24
   11aa8:	01212023          	sw	s2,0(sp)
   11aac:	1c878793          	addi	a5,a5,456 # 241c8 <__init_array_start>
   11ab0:	1c840713          	addi	a4,s0,456 # 241c8 <__init_array_start>
   11ab4:	00112623          	sw	ra,12(sp)
   11ab8:	00912223          	sw	s1,4(sp)
   11abc:	40e78933          	sub	s2,a5,a4
   11ac0:	02e78263          	beq	a5,a4,11ae4 <__libc_init_array+0x4c>
   11ac4:	40295913          	srai	s2,s2,0x2
   11ac8:	1c840413          	addi	s0,s0,456
   11acc:	00000493          	li	s1,0
   11ad0:	00042783          	lw	a5,0(s0)
   11ad4:	00148493          	addi	s1,s1,1
   11ad8:	00440413          	addi	s0,s0,4
   11adc:	000780e7          	jalr	a5
   11ae0:	ff24e8e3          	bltu	s1,s2,11ad0 <__libc_init_array+0x38>
   11ae4:	00024437          	lui	s0,0x24
   11ae8:	000247b7          	lui	a5,0x24
   11aec:	1d078793          	addi	a5,a5,464 # 241d0 <__do_global_dtors_aux_fini_array_entry>
   11af0:	1c840713          	addi	a4,s0,456 # 241c8 <__init_array_start>
   11af4:	40e78933          	sub	s2,a5,a4
   11af8:	40295913          	srai	s2,s2,0x2
   11afc:	02e78063          	beq	a5,a4,11b1c <__libc_init_array+0x84>
   11b00:	1c840413          	addi	s0,s0,456
   11b04:	00000493          	li	s1,0
   11b08:	00042783          	lw	a5,0(s0)
   11b0c:	00148493          	addi	s1,s1,1
   11b10:	00440413          	addi	s0,s0,4
   11b14:	000780e7          	jalr	a5
   11b18:	ff24e8e3          	bltu	s1,s2,11b08 <__libc_init_array+0x70>
   11b1c:	00c12083          	lw	ra,12(sp)
   11b20:	00812403          	lw	s0,8(sp)
   11b24:	00412483          	lw	s1,4(sp)
   11b28:	00012903          	lw	s2,0(sp)
   11b2c:	01010113          	addi	sp,sp,16
   11b30:	00008067          	ret

00011b34 <memset>:
   11b34:	00f00313          	li	t1,15
   11b38:	00050713          	mv	a4,a0
   11b3c:	02c37e63          	bgeu	t1,a2,11b78 <memset+0x44>
   11b40:	00f77793          	andi	a5,a4,15
   11b44:	0a079063          	bnez	a5,11be4 <memset+0xb0>
   11b48:	08059263          	bnez	a1,11bcc <memset+0x98>
   11b4c:	ff067693          	andi	a3,a2,-16
   11b50:	00f67613          	andi	a2,a2,15
   11b54:	00e686b3          	add	a3,a3,a4
   11b58:	00b72023          	sw	a1,0(a4)
   11b5c:	00b72223          	sw	a1,4(a4)
   11b60:	00b72423          	sw	a1,8(a4)
   11b64:	00b72623          	sw	a1,12(a4)
   11b68:	01070713          	addi	a4,a4,16
   11b6c:	fed766e3          	bltu	a4,a3,11b58 <memset+0x24>
   11b70:	00061463          	bnez	a2,11b78 <memset+0x44>
   11b74:	00008067          	ret
   11b78:	40c306b3          	sub	a3,t1,a2
   11b7c:	00269693          	slli	a3,a3,0x2
   11b80:	00000297          	auipc	t0,0x0
   11b84:	005686b3          	add	a3,a3,t0
   11b88:	00c68067          	jr	12(a3)
   11b8c:	00b70723          	sb	a1,14(a4)
   11b90:	00b706a3          	sb	a1,13(a4)
   11b94:	00b70623          	sb	a1,12(a4)
   11b98:	00b705a3          	sb	a1,11(a4)
   11b9c:	00b70523          	sb	a1,10(a4)
   11ba0:	00b704a3          	sb	a1,9(a4)
   11ba4:	00b70423          	sb	a1,8(a4)
   11ba8:	00b703a3          	sb	a1,7(a4)
   11bac:	00b70323          	sb	a1,6(a4)
   11bb0:	00b702a3          	sb	a1,5(a4)
   11bb4:	00b70223          	sb	a1,4(a4)
   11bb8:	00b701a3          	sb	a1,3(a4)
   11bbc:	00b70123          	sb	a1,2(a4)
   11bc0:	00b700a3          	sb	a1,1(a4)
   11bc4:	00b70023          	sb	a1,0(a4)
   11bc8:	00008067          	ret
   11bcc:	0ff5f593          	zext.b	a1,a1
   11bd0:	00859693          	slli	a3,a1,0x8
   11bd4:	00d5e5b3          	or	a1,a1,a3
   11bd8:	01059693          	slli	a3,a1,0x10
   11bdc:	00d5e5b3          	or	a1,a1,a3
   11be0:	f6dff06f          	j	11b4c <memset+0x18>
   11be4:	00279693          	slli	a3,a5,0x2
   11be8:	00000297          	auipc	t0,0x0
   11bec:	005686b3          	add	a3,a3,t0
   11bf0:	00008293          	mv	t0,ra
   11bf4:	fa0680e7          	jalr	-96(a3)
   11bf8:	00028093          	mv	ra,t0
   11bfc:	ff078793          	addi	a5,a5,-16
   11c00:	40f70733          	sub	a4,a4,a5
   11c04:	00f60633          	add	a2,a2,a5
   11c08:	f6c378e3          	bgeu	t1,a2,11b78 <memset+0x44>
   11c0c:	f3dff06f          	j	11b48 <memset+0x14>

00011c10 <strlen>:
   11c10:	00357793          	andi	a5,a0,3
   11c14:	00050713          	mv	a4,a0
   11c18:	04079c63          	bnez	a5,11c70 <strlen+0x60>
   11c1c:	7f7f86b7          	lui	a3,0x7f7f8
   11c20:	f7f68693          	addi	a3,a3,-129 # 7f7f7f7f <__BSS_END__+0x7f7d3363>
   11c24:	fff00593          	li	a1,-1
   11c28:	00072603          	lw	a2,0(a4)
   11c2c:	00470713          	addi	a4,a4,4
   11c30:	00d677b3          	and	a5,a2,a3
   11c34:	00d787b3          	add	a5,a5,a3
   11c38:	00c7e7b3          	or	a5,a5,a2
   11c3c:	00d7e7b3          	or	a5,a5,a3
   11c40:	feb784e3          	beq	a5,a1,11c28 <strlen+0x18>
   11c44:	ffc74683          	lbu	a3,-4(a4)
   11c48:	40a707b3          	sub	a5,a4,a0
   11c4c:	04068463          	beqz	a3,11c94 <strlen+0x84>
   11c50:	ffd74683          	lbu	a3,-3(a4)
   11c54:	02068c63          	beqz	a3,11c8c <strlen+0x7c>
   11c58:	ffe74503          	lbu	a0,-2(a4)
   11c5c:	00a03533          	snez	a0,a0
   11c60:	00f50533          	add	a0,a0,a5
   11c64:	ffe50513          	addi	a0,a0,-2
   11c68:	00008067          	ret
   11c6c:	fa0688e3          	beqz	a3,11c1c <strlen+0xc>
   11c70:	00074783          	lbu	a5,0(a4)
   11c74:	00170713          	addi	a4,a4,1
   11c78:	00377693          	andi	a3,a4,3
   11c7c:	fe0798e3          	bnez	a5,11c6c <strlen+0x5c>
   11c80:	40a70733          	sub	a4,a4,a0
   11c84:	fff70513          	addi	a0,a4,-1
   11c88:	00008067          	ret
   11c8c:	ffd78513          	addi	a0,a5,-3
   11c90:	00008067          	ret
   11c94:	ffc78513          	addi	a0,a5,-4
   11c98:	00008067          	ret

00011c9c <__call_exitprocs>:
   11c9c:	fd010113          	addi	sp,sp,-48
   11ca0:	01412c23          	sw	s4,24(sp)
   11ca4:	03212023          	sw	s2,32(sp)
   11ca8:	f201a903          	lw	s2,-224(gp) # 248f8 <__atexit>
   11cac:	02112623          	sw	ra,44(sp)
   11cb0:	0a090863          	beqz	s2,11d60 <__call_exitprocs+0xc4>
   11cb4:	01312e23          	sw	s3,28(sp)
   11cb8:	01512a23          	sw	s5,20(sp)
   11cbc:	01612823          	sw	s6,16(sp)
   11cc0:	01712623          	sw	s7,12(sp)
   11cc4:	02812423          	sw	s0,40(sp)
   11cc8:	02912223          	sw	s1,36(sp)
   11ccc:	01812423          	sw	s8,8(sp)
   11cd0:	00050b13          	mv	s6,a0
   11cd4:	00058b93          	mv	s7,a1
   11cd8:	fff00993          	li	s3,-1
   11cdc:	00100a93          	li	s5,1
   11ce0:	00492483          	lw	s1,4(s2)
   11ce4:	fff48413          	addi	s0,s1,-1
   11ce8:	04044e63          	bltz	s0,11d44 <__call_exitprocs+0xa8>
   11cec:	00249493          	slli	s1,s1,0x2
   11cf0:	009904b3          	add	s1,s2,s1
   11cf4:	080b9063          	bnez	s7,11d74 <__call_exitprocs+0xd8>
   11cf8:	00492783          	lw	a5,4(s2)
   11cfc:	0044a683          	lw	a3,4(s1)
   11d00:	fff78793          	addi	a5,a5,-1
   11d04:	0a878c63          	beq	a5,s0,11dbc <__call_exitprocs+0x120>
   11d08:	0004a223          	sw	zero,4(s1)
   11d0c:	02068663          	beqz	a3,11d38 <__call_exitprocs+0x9c>
   11d10:	18892783          	lw	a5,392(s2)
   11d14:	008a9733          	sll	a4,s5,s0
   11d18:	00492c03          	lw	s8,4(s2)
   11d1c:	00f777b3          	and	a5,a4,a5
   11d20:	06079663          	bnez	a5,11d8c <__call_exitprocs+0xf0>
   11d24:	000680e7          	jalr	a3
   11d28:	00492703          	lw	a4,4(s2)
   11d2c:	f201a783          	lw	a5,-224(gp) # 248f8 <__atexit>
   11d30:	09871063          	bne	a4,s8,11db0 <__call_exitprocs+0x114>
   11d34:	07279e63          	bne	a5,s2,11db0 <__call_exitprocs+0x114>
   11d38:	fff40413          	addi	s0,s0,-1
   11d3c:	ffc48493          	addi	s1,s1,-4
   11d40:	fb341ae3          	bne	s0,s3,11cf4 <__call_exitprocs+0x58>
   11d44:	02812403          	lw	s0,40(sp)
   11d48:	02412483          	lw	s1,36(sp)
   11d4c:	01c12983          	lw	s3,28(sp)
   11d50:	01412a83          	lw	s5,20(sp)
   11d54:	01012b03          	lw	s6,16(sp)
   11d58:	00c12b83          	lw	s7,12(sp)
   11d5c:	00812c03          	lw	s8,8(sp)
   11d60:	02c12083          	lw	ra,44(sp)
   11d64:	02012903          	lw	s2,32(sp)
   11d68:	01812a03          	lw	s4,24(sp)
   11d6c:	03010113          	addi	sp,sp,48
   11d70:	00008067          	ret
   11d74:	1044a783          	lw	a5,260(s1)
   11d78:	f97780e3          	beq	a5,s7,11cf8 <__call_exitprocs+0x5c>
   11d7c:	fff40413          	addi	s0,s0,-1
   11d80:	ffc48493          	addi	s1,s1,-4
   11d84:	ff3418e3          	bne	s0,s3,11d74 <__call_exitprocs+0xd8>
   11d88:	fbdff06f          	j	11d44 <__call_exitprocs+0xa8>
   11d8c:	18c92783          	lw	a5,396(s2)
   11d90:	0844a583          	lw	a1,132(s1)
   11d94:	00f77733          	and	a4,a4,a5
   11d98:	02071663          	bnez	a4,11dc4 <__call_exitprocs+0x128>
   11d9c:	000b0513          	mv	a0,s6
   11da0:	000680e7          	jalr	a3
   11da4:	00492703          	lw	a4,4(s2)
   11da8:	f201a783          	lw	a5,-224(gp) # 248f8 <__atexit>
   11dac:	f98704e3          	beq	a4,s8,11d34 <__call_exitprocs+0x98>
   11db0:	f8078ae3          	beqz	a5,11d44 <__call_exitprocs+0xa8>
   11db4:	00078913          	mv	s2,a5
   11db8:	f29ff06f          	j	11ce0 <__call_exitprocs+0x44>
   11dbc:	00892223          	sw	s0,4(s2)
   11dc0:	f4dff06f          	j	11d0c <__call_exitprocs+0x70>
   11dc4:	00058513          	mv	a0,a1
   11dc8:	000680e7          	jalr	a3
   11dcc:	f5dff06f          	j	11d28 <__call_exitprocs+0x8c>

00011dd0 <atexit>:
   11dd0:	00050593          	mv	a1,a0
   11dd4:	00000693          	li	a3,0
   11dd8:	00000613          	li	a2,0
   11ddc:	00000513          	li	a0,0
   11de0:	1810406f          	j	16760 <__register_exitproc>

00011de4 <_malloc_trim_r>:
   11de4:	fe010113          	addi	sp,sp,-32
   11de8:	01312623          	sw	s3,12(sp)
   11dec:	000249b7          	lui	s3,0x24
   11df0:	00812c23          	sw	s0,24(sp)
   11df4:	00912a23          	sw	s1,20(sp)
   11df8:	01212823          	sw	s2,16(sp)
   11dfc:	01412423          	sw	s4,8(sp)
   11e00:	00112e23          	sw	ra,28(sp)
   11e04:	00058a13          	mv	s4,a1
   11e08:	00050913          	mv	s2,a0
   11e0c:	30898993          	addi	s3,s3,776 # 24308 <__malloc_av_>
   11e10:	3cd000ef          	jal	129dc <__malloc_lock>
   11e14:	0089a703          	lw	a4,8(s3)
   11e18:	000017b7          	lui	a5,0x1
   11e1c:	fef78793          	addi	a5,a5,-17 # fef <exit-0xf0a5>
   11e20:	00472483          	lw	s1,4(a4)
   11e24:	00001737          	lui	a4,0x1
   11e28:	ffc4f493          	andi	s1,s1,-4
   11e2c:	00f48433          	add	s0,s1,a5
   11e30:	41440433          	sub	s0,s0,s4
   11e34:	00c45413          	srli	s0,s0,0xc
   11e38:	fff40413          	addi	s0,s0,-1
   11e3c:	00c41413          	slli	s0,s0,0xc
   11e40:	00e44e63          	blt	s0,a4,11e5c <_malloc_trim_r+0x78>
   11e44:	00000593          	li	a1,0
   11e48:	00090513          	mv	a0,s2
   11e4c:	428040ef          	jal	16274 <_sbrk_r>
   11e50:	0089a783          	lw	a5,8(s3)
   11e54:	009787b3          	add	a5,a5,s1
   11e58:	02f50863          	beq	a0,a5,11e88 <_malloc_trim_r+0xa4>
   11e5c:	00090513          	mv	a0,s2
   11e60:	381000ef          	jal	129e0 <__malloc_unlock>
   11e64:	01c12083          	lw	ra,28(sp)
   11e68:	01812403          	lw	s0,24(sp)
   11e6c:	01412483          	lw	s1,20(sp)
   11e70:	01012903          	lw	s2,16(sp)
   11e74:	00c12983          	lw	s3,12(sp)
   11e78:	00812a03          	lw	s4,8(sp)
   11e7c:	00000513          	li	a0,0
   11e80:	02010113          	addi	sp,sp,32
   11e84:	00008067          	ret
   11e88:	408005b3          	neg	a1,s0
   11e8c:	00090513          	mv	a0,s2
   11e90:	3e4040ef          	jal	16274 <_sbrk_r>
   11e94:	fff00793          	li	a5,-1
   11e98:	04f50863          	beq	a0,a5,11ee8 <_malloc_trim_r+0x104>
   11e9c:	08c18793          	addi	a5,gp,140 # 24a64 <__malloc_current_mallinfo>
   11ea0:	0007a703          	lw	a4,0(a5)
   11ea4:	0089a683          	lw	a3,8(s3)
   11ea8:	408484b3          	sub	s1,s1,s0
   11eac:	0014e493          	ori	s1,s1,1
   11eb0:	40870733          	sub	a4,a4,s0
   11eb4:	00090513          	mv	a0,s2
   11eb8:	0096a223          	sw	s1,4(a3)
   11ebc:	00e7a023          	sw	a4,0(a5)
   11ec0:	321000ef          	jal	129e0 <__malloc_unlock>
   11ec4:	01c12083          	lw	ra,28(sp)
   11ec8:	01812403          	lw	s0,24(sp)
   11ecc:	01412483          	lw	s1,20(sp)
   11ed0:	01012903          	lw	s2,16(sp)
   11ed4:	00c12983          	lw	s3,12(sp)
   11ed8:	00812a03          	lw	s4,8(sp)
   11edc:	00100513          	li	a0,1
   11ee0:	02010113          	addi	sp,sp,32
   11ee4:	00008067          	ret
   11ee8:	00000593          	li	a1,0
   11eec:	00090513          	mv	a0,s2
   11ef0:	384040ef          	jal	16274 <_sbrk_r>
   11ef4:	0089a703          	lw	a4,8(s3)
   11ef8:	00f00693          	li	a3,15
   11efc:	40e507b3          	sub	a5,a0,a4
   11f00:	f4f6dee3          	bge	a3,a5,11e5c <_malloc_trim_r+0x78>
   11f04:	f101a683          	lw	a3,-240(gp) # 248e8 <__malloc_sbrk_base>
   11f08:	0017e793          	ori	a5,a5,1
   11f0c:	00f72223          	sw	a5,4(a4) # 1004 <exit-0xf090>
   11f10:	40d50533          	sub	a0,a0,a3
   11f14:	08a1a623          	sw	a0,140(gp) # 24a64 <__malloc_current_mallinfo>
   11f18:	f45ff06f          	j	11e5c <_malloc_trim_r+0x78>

00011f1c <_free_r>:
   11f1c:	18058263          	beqz	a1,120a0 <_free_r+0x184>
   11f20:	ff010113          	addi	sp,sp,-16
   11f24:	00812423          	sw	s0,8(sp)
   11f28:	00912223          	sw	s1,4(sp)
   11f2c:	00058413          	mv	s0,a1
   11f30:	00050493          	mv	s1,a0
   11f34:	00112623          	sw	ra,12(sp)
   11f38:	2a5000ef          	jal	129dc <__malloc_lock>
   11f3c:	ffc42503          	lw	a0,-4(s0)
   11f40:	ff840713          	addi	a4,s0,-8
   11f44:	000245b7          	lui	a1,0x24
   11f48:	ffe57793          	andi	a5,a0,-2
   11f4c:	00f70633          	add	a2,a4,a5
   11f50:	30858593          	addi	a1,a1,776 # 24308 <__malloc_av_>
   11f54:	00462683          	lw	a3,4(a2) # 2004 <exit-0xe090>
   11f58:	0085a803          	lw	a6,8(a1)
   11f5c:	ffc6f693          	andi	a3,a3,-4
   11f60:	1ac80263          	beq	a6,a2,12104 <_free_r+0x1e8>
   11f64:	00d62223          	sw	a3,4(a2)
   11f68:	00157513          	andi	a0,a0,1
   11f6c:	00d60833          	add	a6,a2,a3
   11f70:	0a051063          	bnez	a0,12010 <_free_r+0xf4>
   11f74:	ff842303          	lw	t1,-8(s0)
   11f78:	00482803          	lw	a6,4(a6)
   11f7c:	00024537          	lui	a0,0x24
   11f80:	40670733          	sub	a4,a4,t1
   11f84:	00872883          	lw	a7,8(a4)
   11f88:	31050513          	addi	a0,a0,784 # 24310 <__malloc_av_+0x8>
   11f8c:	006787b3          	add	a5,a5,t1
   11f90:	00187813          	andi	a6,a6,1
   11f94:	14a88263          	beq	a7,a0,120d8 <_free_r+0x1bc>
   11f98:	00c72303          	lw	t1,12(a4)
   11f9c:	0068a623          	sw	t1,12(a7)
   11fa0:	01132423          	sw	a7,8(t1)
   11fa4:	1a080663          	beqz	a6,12150 <_free_r+0x234>
   11fa8:	0017e693          	ori	a3,a5,1
   11fac:	00d72223          	sw	a3,4(a4)
   11fb0:	00f62023          	sw	a5,0(a2)
   11fb4:	1ff00693          	li	a3,511
   11fb8:	06f6ec63          	bltu	a3,a5,12030 <_free_r+0x114>
   11fbc:	ff87f693          	andi	a3,a5,-8
   11fc0:	00868693          	addi	a3,a3,8
   11fc4:	0045a503          	lw	a0,4(a1)
   11fc8:	00d586b3          	add	a3,a1,a3
   11fcc:	0006a603          	lw	a2,0(a3)
   11fd0:	0057d813          	srli	a6,a5,0x5
   11fd4:	00100793          	li	a5,1
   11fd8:	010797b3          	sll	a5,a5,a6
   11fdc:	00a7e7b3          	or	a5,a5,a0
   11fe0:	ff868513          	addi	a0,a3,-8
   11fe4:	00a72623          	sw	a0,12(a4)
   11fe8:	00c72423          	sw	a2,8(a4)
   11fec:	00f5a223          	sw	a5,4(a1)
   11ff0:	00e6a023          	sw	a4,0(a3)
   11ff4:	00e62623          	sw	a4,12(a2)
   11ff8:	00812403          	lw	s0,8(sp)
   11ffc:	00c12083          	lw	ra,12(sp)
   12000:	00048513          	mv	a0,s1
   12004:	00412483          	lw	s1,4(sp)
   12008:	01010113          	addi	sp,sp,16
   1200c:	1d50006f          	j	129e0 <__malloc_unlock>
   12010:	00482503          	lw	a0,4(a6)
   12014:	00157513          	andi	a0,a0,1
   12018:	08050663          	beqz	a0,120a4 <_free_r+0x188>
   1201c:	0017e693          	ori	a3,a5,1
   12020:	fed42e23          	sw	a3,-4(s0)
   12024:	00f62023          	sw	a5,0(a2)
   12028:	1ff00693          	li	a3,511
   1202c:	f8f6f8e3          	bgeu	a3,a5,11fbc <_free_r+0xa0>
   12030:	0097d693          	srli	a3,a5,0x9
   12034:	00400613          	li	a2,4
   12038:	12d66063          	bltu	a2,a3,12158 <_free_r+0x23c>
   1203c:	0067d693          	srli	a3,a5,0x6
   12040:	03968513          	addi	a0,a3,57
   12044:	03868613          	addi	a2,a3,56
   12048:	00351513          	slli	a0,a0,0x3
   1204c:	00a58533          	add	a0,a1,a0
   12050:	00052683          	lw	a3,0(a0)
   12054:	ff850513          	addi	a0,a0,-8
   12058:	00d51863          	bne	a0,a3,12068 <_free_r+0x14c>
   1205c:	1540006f          	j	121b0 <_free_r+0x294>
   12060:	0086a683          	lw	a3,8(a3)
   12064:	00d50863          	beq	a0,a3,12074 <_free_r+0x158>
   12068:	0046a603          	lw	a2,4(a3)
   1206c:	ffc67613          	andi	a2,a2,-4
   12070:	fec7e8e3          	bltu	a5,a2,12060 <_free_r+0x144>
   12074:	00c6a503          	lw	a0,12(a3)
   12078:	00a72623          	sw	a0,12(a4)
   1207c:	00d72423          	sw	a3,8(a4)
   12080:	00812403          	lw	s0,8(sp)
   12084:	00e52423          	sw	a4,8(a0)
   12088:	00c12083          	lw	ra,12(sp)
   1208c:	00048513          	mv	a0,s1
   12090:	00412483          	lw	s1,4(sp)
   12094:	00e6a623          	sw	a4,12(a3)
   12098:	01010113          	addi	sp,sp,16
   1209c:	1450006f          	j	129e0 <__malloc_unlock>
   120a0:	00008067          	ret
   120a4:	00024537          	lui	a0,0x24
   120a8:	00d787b3          	add	a5,a5,a3
   120ac:	31050513          	addi	a0,a0,784 # 24310 <__malloc_av_+0x8>
   120b0:	00862683          	lw	a3,8(a2)
   120b4:	0ca68c63          	beq	a3,a0,1218c <_free_r+0x270>
   120b8:	00c62803          	lw	a6,12(a2)
   120bc:	0017e513          	ori	a0,a5,1
   120c0:	00f70633          	add	a2,a4,a5
   120c4:	0106a623          	sw	a6,12(a3)
   120c8:	00d82423          	sw	a3,8(a6)
   120cc:	00a72223          	sw	a0,4(a4)
   120d0:	00f62023          	sw	a5,0(a2)
   120d4:	ee1ff06f          	j	11fb4 <_free_r+0x98>
   120d8:	12081c63          	bnez	a6,12210 <_free_r+0x2f4>
   120dc:	00862583          	lw	a1,8(a2)
   120e0:	00c62603          	lw	a2,12(a2)
   120e4:	00f686b3          	add	a3,a3,a5
   120e8:	0016e793          	ori	a5,a3,1
   120ec:	00c5a623          	sw	a2,12(a1)
   120f0:	00b62423          	sw	a1,8(a2)
   120f4:	00f72223          	sw	a5,4(a4)
   120f8:	00d70733          	add	a4,a4,a3
   120fc:	00d72023          	sw	a3,0(a4)
   12100:	ef9ff06f          	j	11ff8 <_free_r+0xdc>
   12104:	00157513          	andi	a0,a0,1
   12108:	00d786b3          	add	a3,a5,a3
   1210c:	02051063          	bnez	a0,1212c <_free_r+0x210>
   12110:	ff842503          	lw	a0,-8(s0)
   12114:	40a70733          	sub	a4,a4,a0
   12118:	00c72783          	lw	a5,12(a4)
   1211c:	00872603          	lw	a2,8(a4)
   12120:	00a686b3          	add	a3,a3,a0
   12124:	00f62623          	sw	a5,12(a2)
   12128:	00c7a423          	sw	a2,8(a5)
   1212c:	0016e613          	ori	a2,a3,1
   12130:	f141a783          	lw	a5,-236(gp) # 248ec <__malloc_trim_threshold>
   12134:	00c72223          	sw	a2,4(a4)
   12138:	00e5a423          	sw	a4,8(a1)
   1213c:	eaf6eee3          	bltu	a3,a5,11ff8 <_free_r+0xdc>
   12140:	f2c1a583          	lw	a1,-212(gp) # 24904 <__malloc_top_pad>
   12144:	00048513          	mv	a0,s1
   12148:	c9dff0ef          	jal	11de4 <_malloc_trim_r>
   1214c:	eadff06f          	j	11ff8 <_free_r+0xdc>
   12150:	00d787b3          	add	a5,a5,a3
   12154:	f5dff06f          	j	120b0 <_free_r+0x194>
   12158:	01400613          	li	a2,20
   1215c:	02d67063          	bgeu	a2,a3,1217c <_free_r+0x260>
   12160:	05400613          	li	a2,84
   12164:	06d66463          	bltu	a2,a3,121cc <_free_r+0x2b0>
   12168:	00c7d693          	srli	a3,a5,0xc
   1216c:	06f68513          	addi	a0,a3,111
   12170:	06e68613          	addi	a2,a3,110
   12174:	00351513          	slli	a0,a0,0x3
   12178:	ed5ff06f          	j	1204c <_free_r+0x130>
   1217c:	05c68513          	addi	a0,a3,92
   12180:	05b68613          	addi	a2,a3,91
   12184:	00351513          	slli	a0,a0,0x3
   12188:	ec5ff06f          	j	1204c <_free_r+0x130>
   1218c:	00e5aa23          	sw	a4,20(a1)
   12190:	00e5a823          	sw	a4,16(a1)
   12194:	0017e693          	ori	a3,a5,1
   12198:	00a72623          	sw	a0,12(a4)
   1219c:	00a72423          	sw	a0,8(a4)
   121a0:	00d72223          	sw	a3,4(a4)
   121a4:	00f70733          	add	a4,a4,a5
   121a8:	00f72023          	sw	a5,0(a4)
   121ac:	e4dff06f          	j	11ff8 <_free_r+0xdc>
   121b0:	0045a803          	lw	a6,4(a1)
   121b4:	40265613          	srai	a2,a2,0x2
   121b8:	00100793          	li	a5,1
   121bc:	00c797b3          	sll	a5,a5,a2
   121c0:	0107e7b3          	or	a5,a5,a6
   121c4:	00f5a223          	sw	a5,4(a1)
   121c8:	eb1ff06f          	j	12078 <_free_r+0x15c>
   121cc:	15400613          	li	a2,340
   121d0:	00d66c63          	bltu	a2,a3,121e8 <_free_r+0x2cc>
   121d4:	00f7d693          	srli	a3,a5,0xf
   121d8:	07868513          	addi	a0,a3,120
   121dc:	07768613          	addi	a2,a3,119
   121e0:	00351513          	slli	a0,a0,0x3
   121e4:	e69ff06f          	j	1204c <_free_r+0x130>
   121e8:	55400613          	li	a2,1364
   121ec:	00d66c63          	bltu	a2,a3,12204 <_free_r+0x2e8>
   121f0:	0127d693          	srli	a3,a5,0x12
   121f4:	07d68513          	addi	a0,a3,125
   121f8:	07c68613          	addi	a2,a3,124
   121fc:	00351513          	slli	a0,a0,0x3
   12200:	e4dff06f          	j	1204c <_free_r+0x130>
   12204:	3f800513          	li	a0,1016
   12208:	07e00613          	li	a2,126
   1220c:	e41ff06f          	j	1204c <_free_r+0x130>
   12210:	0017e693          	ori	a3,a5,1
   12214:	00d72223          	sw	a3,4(a4)
   12218:	00f62023          	sw	a5,0(a2)
   1221c:	dddff06f          	j	11ff8 <_free_r+0xdc>

00012220 <_malloc_r>:
   12220:	fd010113          	addi	sp,sp,-48
   12224:	01312e23          	sw	s3,28(sp)
   12228:	02112623          	sw	ra,44(sp)
   1222c:	02812423          	sw	s0,40(sp)
   12230:	02912223          	sw	s1,36(sp)
   12234:	03212023          	sw	s2,32(sp)
   12238:	00b58793          	addi	a5,a1,11
   1223c:	01600713          	li	a4,22
   12240:	00050993          	mv	s3,a0
   12244:	08f76263          	bltu	a4,a5,122c8 <_malloc_r+0xa8>
   12248:	01000793          	li	a5,16
   1224c:	20b7e663          	bltu	a5,a1,12458 <_malloc_r+0x238>
   12250:	78c000ef          	jal	129dc <__malloc_lock>
   12254:	01800793          	li	a5,24
   12258:	00200593          	li	a1,2
   1225c:	01000493          	li	s1,16
   12260:	00024937          	lui	s2,0x24
   12264:	30890913          	addi	s2,s2,776 # 24308 <__malloc_av_>
   12268:	00f907b3          	add	a5,s2,a5
   1226c:	0047a403          	lw	s0,4(a5)
   12270:	ff878713          	addi	a4,a5,-8
   12274:	34e40463          	beq	s0,a4,125bc <_malloc_r+0x39c>
   12278:	00442783          	lw	a5,4(s0)
   1227c:	00c42683          	lw	a3,12(s0)
   12280:	00842603          	lw	a2,8(s0)
   12284:	ffc7f793          	andi	a5,a5,-4
   12288:	00f407b3          	add	a5,s0,a5
   1228c:	0047a703          	lw	a4,4(a5)
   12290:	00d62623          	sw	a3,12(a2)
   12294:	00c6a423          	sw	a2,8(a3)
   12298:	00176713          	ori	a4,a4,1
   1229c:	00098513          	mv	a0,s3
   122a0:	00e7a223          	sw	a4,4(a5)
   122a4:	73c000ef          	jal	129e0 <__malloc_unlock>
   122a8:	00840513          	addi	a0,s0,8
   122ac:	02c12083          	lw	ra,44(sp)
   122b0:	02812403          	lw	s0,40(sp)
   122b4:	02412483          	lw	s1,36(sp)
   122b8:	02012903          	lw	s2,32(sp)
   122bc:	01c12983          	lw	s3,28(sp)
   122c0:	03010113          	addi	sp,sp,48
   122c4:	00008067          	ret
   122c8:	ff87f493          	andi	s1,a5,-8
   122cc:	1807c663          	bltz	a5,12458 <_malloc_r+0x238>
   122d0:	18b4e463          	bltu	s1,a1,12458 <_malloc_r+0x238>
   122d4:	708000ef          	jal	129dc <__malloc_lock>
   122d8:	1f700793          	li	a5,503
   122dc:	3e97fa63          	bgeu	a5,s1,126d0 <_malloc_r+0x4b0>
   122e0:	0094d793          	srli	a5,s1,0x9
   122e4:	18078263          	beqz	a5,12468 <_malloc_r+0x248>
   122e8:	00400713          	li	a4,4
   122ec:	34f76063          	bltu	a4,a5,1262c <_malloc_r+0x40c>
   122f0:	0064d793          	srli	a5,s1,0x6
   122f4:	03978593          	addi	a1,a5,57
   122f8:	03878813          	addi	a6,a5,56
   122fc:	00359613          	slli	a2,a1,0x3
   12300:	00024937          	lui	s2,0x24
   12304:	30890913          	addi	s2,s2,776 # 24308 <__malloc_av_>
   12308:	00c90633          	add	a2,s2,a2
   1230c:	00462403          	lw	s0,4(a2)
   12310:	ff860613          	addi	a2,a2,-8
   12314:	02860863          	beq	a2,s0,12344 <_malloc_r+0x124>
   12318:	00f00513          	li	a0,15
   1231c:	0140006f          	j	12330 <_malloc_r+0x110>
   12320:	00c42683          	lw	a3,12(s0)
   12324:	28075863          	bgez	a4,125b4 <_malloc_r+0x394>
   12328:	00d60e63          	beq	a2,a3,12344 <_malloc_r+0x124>
   1232c:	00068413          	mv	s0,a3
   12330:	00442783          	lw	a5,4(s0)
   12334:	ffc7f793          	andi	a5,a5,-4
   12338:	40978733          	sub	a4,a5,s1
   1233c:	fee552e3          	bge	a0,a4,12320 <_malloc_r+0x100>
   12340:	00080593          	mv	a1,a6
   12344:	01092403          	lw	s0,16(s2)
   12348:	00024837          	lui	a6,0x24
   1234c:	31080813          	addi	a6,a6,784 # 24310 <__malloc_av_+0x8>
   12350:	25040e63          	beq	s0,a6,125ac <_malloc_r+0x38c>
   12354:	00442783          	lw	a5,4(s0)
   12358:	00f00693          	li	a3,15
   1235c:	ffc7f793          	andi	a5,a5,-4
   12360:	40978733          	sub	a4,a5,s1
   12364:	36e6cc63          	blt	a3,a4,126dc <_malloc_r+0x4bc>
   12368:	01092a23          	sw	a6,20(s2)
   1236c:	01092823          	sw	a6,16(s2)
   12370:	34075063          	bgez	a4,126b0 <_malloc_r+0x490>
   12374:	1ff00713          	li	a4,511
   12378:	00492503          	lw	a0,4(s2)
   1237c:	24f76863          	bltu	a4,a5,125cc <_malloc_r+0x3ac>
   12380:	ff87f713          	andi	a4,a5,-8
   12384:	00870713          	addi	a4,a4,8
   12388:	00e90733          	add	a4,s2,a4
   1238c:	00072683          	lw	a3,0(a4)
   12390:	0057d613          	srli	a2,a5,0x5
   12394:	00100793          	li	a5,1
   12398:	00c797b3          	sll	a5,a5,a2
   1239c:	00f56533          	or	a0,a0,a5
   123a0:	ff870793          	addi	a5,a4,-8
   123a4:	00f42623          	sw	a5,12(s0)
   123a8:	00d42423          	sw	a3,8(s0)
   123ac:	00a92223          	sw	a0,4(s2)
   123b0:	00872023          	sw	s0,0(a4)
   123b4:	0086a623          	sw	s0,12(a3)
   123b8:	4025d793          	srai	a5,a1,0x2
   123bc:	00100613          	li	a2,1
   123c0:	00f61633          	sll	a2,a2,a5
   123c4:	0ac56a63          	bltu	a0,a2,12478 <_malloc_r+0x258>
   123c8:	00a677b3          	and	a5,a2,a0
   123cc:	02079463          	bnez	a5,123f4 <_malloc_r+0x1d4>
   123d0:	00161613          	slli	a2,a2,0x1
   123d4:	ffc5f593          	andi	a1,a1,-4
   123d8:	00a677b3          	and	a5,a2,a0
   123dc:	00458593          	addi	a1,a1,4
   123e0:	00079a63          	bnez	a5,123f4 <_malloc_r+0x1d4>
   123e4:	00161613          	slli	a2,a2,0x1
   123e8:	00a677b3          	and	a5,a2,a0
   123ec:	00458593          	addi	a1,a1,4
   123f0:	fe078ae3          	beqz	a5,123e4 <_malloc_r+0x1c4>
   123f4:	00f00893          	li	a7,15
   123f8:	00359313          	slli	t1,a1,0x3
   123fc:	00690333          	add	t1,s2,t1
   12400:	00030513          	mv	a0,t1
   12404:	00c52783          	lw	a5,12(a0)
   12408:	00058e13          	mv	t3,a1
   1240c:	24f50263          	beq	a0,a5,12650 <_malloc_r+0x430>
   12410:	0047a703          	lw	a4,4(a5)
   12414:	00078413          	mv	s0,a5
   12418:	00c7a783          	lw	a5,12(a5)
   1241c:	ffc77713          	andi	a4,a4,-4
   12420:	409706b3          	sub	a3,a4,s1
   12424:	24d8c263          	blt	a7,a3,12668 <_malloc_r+0x448>
   12428:	fe06c2e3          	bltz	a3,1240c <_malloc_r+0x1ec>
   1242c:	00e40733          	add	a4,s0,a4
   12430:	00472683          	lw	a3,4(a4)
   12434:	00842603          	lw	a2,8(s0)
   12438:	00098513          	mv	a0,s3
   1243c:	0016e693          	ori	a3,a3,1
   12440:	00d72223          	sw	a3,4(a4)
   12444:	00f62623          	sw	a5,12(a2)
   12448:	00c7a423          	sw	a2,8(a5)
   1244c:	594000ef          	jal	129e0 <__malloc_unlock>
   12450:	00840513          	addi	a0,s0,8
   12454:	e59ff06f          	j	122ac <_malloc_r+0x8c>
   12458:	00c00793          	li	a5,12
   1245c:	00f9a023          	sw	a5,0(s3)
   12460:	00000513          	li	a0,0
   12464:	e49ff06f          	j	122ac <_malloc_r+0x8c>
   12468:	20000613          	li	a2,512
   1246c:	04000593          	li	a1,64
   12470:	03f00813          	li	a6,63
   12474:	e8dff06f          	j	12300 <_malloc_r+0xe0>
   12478:	00892403          	lw	s0,8(s2)
   1247c:	01612823          	sw	s6,16(sp)
   12480:	00442783          	lw	a5,4(s0)
   12484:	ffc7fb13          	andi	s6,a5,-4
   12488:	009b6863          	bltu	s6,s1,12498 <_malloc_r+0x278>
   1248c:	409b0733          	sub	a4,s6,s1
   12490:	00f00793          	li	a5,15
   12494:	0ce7ca63          	blt	a5,a4,12568 <_malloc_r+0x348>
   12498:	01912223          	sw	s9,4(sp)
   1249c:	01512a23          	sw	s5,20(sp)
   124a0:	f101a703          	lw	a4,-240(gp) # 248e8 <__malloc_sbrk_base>
   124a4:	f2c1aa83          	lw	s5,-212(gp) # 24904 <__malloc_top_pad>
   124a8:	01412c23          	sw	s4,24(sp)
   124ac:	01712623          	sw	s7,12(sp)
   124b0:	fff00793          	li	a5,-1
   124b4:	01640a33          	add	s4,s0,s6
   124b8:	01548ab3          	add	s5,s1,s5
   124bc:	3cf70663          	beq	a4,a5,12888 <_malloc_r+0x668>
   124c0:	000017b7          	lui	a5,0x1
   124c4:	00f78793          	addi	a5,a5,15 # 100f <exit-0xf085>
   124c8:	00fa8ab3          	add	s5,s5,a5
   124cc:	fffff7b7          	lui	a5,0xfffff
   124d0:	00fafab3          	and	s5,s5,a5
   124d4:	000a8593          	mv	a1,s5
   124d8:	00098513          	mv	a0,s3
   124dc:	599030ef          	jal	16274 <_sbrk_r>
   124e0:	fff00793          	li	a5,-1
   124e4:	00050b93          	mv	s7,a0
   124e8:	44f50a63          	beq	a0,a5,1293c <_malloc_r+0x71c>
   124ec:	01812423          	sw	s8,8(sp)
   124f0:	23456e63          	bltu	a0,s4,1272c <_malloc_r+0x50c>
   124f4:	08c18c13          	addi	s8,gp,140 # 24a64 <__malloc_current_mallinfo>
   124f8:	000c2583          	lw	a1,0(s8)
   124fc:	00ba85b3          	add	a1,s5,a1
   12500:	00bc2023          	sw	a1,0(s8)
   12504:	00058713          	mv	a4,a1
   12508:	2aaa1663          	bne	s4,a0,127b4 <_malloc_r+0x594>
   1250c:	01451793          	slli	a5,a0,0x14
   12510:	2a079263          	bnez	a5,127b4 <_malloc_r+0x594>
   12514:	00892b83          	lw	s7,8(s2)
   12518:	015b07b3          	add	a5,s6,s5
   1251c:	0017e793          	ori	a5,a5,1
   12520:	00fba223          	sw	a5,4(s7)
   12524:	f281a683          	lw	a3,-216(gp) # 24900 <__malloc_max_sbrked_mem>
   12528:	00b6f463          	bgeu	a3,a1,12530 <_malloc_r+0x310>
   1252c:	f2b1a423          	sw	a1,-216(gp) # 24900 <__malloc_max_sbrked_mem>
   12530:	f241a683          	lw	a3,-220(gp) # 248fc <__malloc_max_total_mem>
   12534:	00b6f463          	bgeu	a3,a1,1253c <_malloc_r+0x31c>
   12538:	f2b1a223          	sw	a1,-220(gp) # 248fc <__malloc_max_total_mem>
   1253c:	00812c03          	lw	s8,8(sp)
   12540:	000b8413          	mv	s0,s7
   12544:	ffc7f793          	andi	a5,a5,-4
   12548:	40978733          	sub	a4,a5,s1
   1254c:	3897ea63          	bltu	a5,s1,128e0 <_malloc_r+0x6c0>
   12550:	00f00793          	li	a5,15
   12554:	38e7d663          	bge	a5,a4,128e0 <_malloc_r+0x6c0>
   12558:	01812a03          	lw	s4,24(sp)
   1255c:	01412a83          	lw	s5,20(sp)
   12560:	00c12b83          	lw	s7,12(sp)
   12564:	00412c83          	lw	s9,4(sp)
   12568:	0014e793          	ori	a5,s1,1
   1256c:	00f42223          	sw	a5,4(s0)
   12570:	009404b3          	add	s1,s0,s1
   12574:	00992423          	sw	s1,8(s2)
   12578:	00176713          	ori	a4,a4,1
   1257c:	00098513          	mv	a0,s3
   12580:	00e4a223          	sw	a4,4(s1)
   12584:	45c000ef          	jal	129e0 <__malloc_unlock>
   12588:	02c12083          	lw	ra,44(sp)
   1258c:	00840513          	addi	a0,s0,8
   12590:	02812403          	lw	s0,40(sp)
   12594:	01012b03          	lw	s6,16(sp)
   12598:	02412483          	lw	s1,36(sp)
   1259c:	02012903          	lw	s2,32(sp)
   125a0:	01c12983          	lw	s3,28(sp)
   125a4:	03010113          	addi	sp,sp,48
   125a8:	00008067          	ret
   125ac:	00492503          	lw	a0,4(s2)
   125b0:	e09ff06f          	j	123b8 <_malloc_r+0x198>
   125b4:	00842603          	lw	a2,8(s0)
   125b8:	cd1ff06f          	j	12288 <_malloc_r+0x68>
   125bc:	00c7a403          	lw	s0,12(a5) # fffff00c <__BSS_END__+0xfffda3f0>
   125c0:	00258593          	addi	a1,a1,2
   125c4:	d88780e3          	beq	a5,s0,12344 <_malloc_r+0x124>
   125c8:	cb1ff06f          	j	12278 <_malloc_r+0x58>
   125cc:	0097d713          	srli	a4,a5,0x9
   125d0:	00400693          	li	a3,4
   125d4:	14e6f263          	bgeu	a3,a4,12718 <_malloc_r+0x4f8>
   125d8:	01400693          	li	a3,20
   125dc:	32e6e463          	bltu	a3,a4,12904 <_malloc_r+0x6e4>
   125e0:	05c70613          	addi	a2,a4,92
   125e4:	05b70693          	addi	a3,a4,91
   125e8:	00361613          	slli	a2,a2,0x3
   125ec:	00c90633          	add	a2,s2,a2
   125f0:	00062703          	lw	a4,0(a2)
   125f4:	ff860613          	addi	a2,a2,-8
   125f8:	00e61863          	bne	a2,a4,12608 <_malloc_r+0x3e8>
   125fc:	2940006f          	j	12890 <_malloc_r+0x670>
   12600:	00872703          	lw	a4,8(a4)
   12604:	00e60863          	beq	a2,a4,12614 <_malloc_r+0x3f4>
   12608:	00472683          	lw	a3,4(a4)
   1260c:	ffc6f693          	andi	a3,a3,-4
   12610:	fed7e8e3          	bltu	a5,a3,12600 <_malloc_r+0x3e0>
   12614:	00c72603          	lw	a2,12(a4)
   12618:	00c42623          	sw	a2,12(s0)
   1261c:	00e42423          	sw	a4,8(s0)
   12620:	00862423          	sw	s0,8(a2)
   12624:	00872623          	sw	s0,12(a4)
   12628:	d91ff06f          	j	123b8 <_malloc_r+0x198>
   1262c:	01400713          	li	a4,20
   12630:	10f77863          	bgeu	a4,a5,12740 <_malloc_r+0x520>
   12634:	05400713          	li	a4,84
   12638:	2ef76463          	bltu	a4,a5,12920 <_malloc_r+0x700>
   1263c:	00c4d793          	srli	a5,s1,0xc
   12640:	06f78593          	addi	a1,a5,111
   12644:	06e78813          	addi	a6,a5,110
   12648:	00359613          	slli	a2,a1,0x3
   1264c:	cb5ff06f          	j	12300 <_malloc_r+0xe0>
   12650:	001e0e13          	addi	t3,t3,1
   12654:	003e7793          	andi	a5,t3,3
   12658:	00850513          	addi	a0,a0,8
   1265c:	10078063          	beqz	a5,1275c <_malloc_r+0x53c>
   12660:	00c52783          	lw	a5,12(a0)
   12664:	da9ff06f          	j	1240c <_malloc_r+0x1ec>
   12668:	00842603          	lw	a2,8(s0)
   1266c:	0014e593          	ori	a1,s1,1
   12670:	00b42223          	sw	a1,4(s0)
   12674:	00f62623          	sw	a5,12(a2)
   12678:	00c7a423          	sw	a2,8(a5)
   1267c:	009404b3          	add	s1,s0,s1
   12680:	00992a23          	sw	s1,20(s2)
   12684:	00992823          	sw	s1,16(s2)
   12688:	0016e793          	ori	a5,a3,1
   1268c:	0104a623          	sw	a6,12(s1)
   12690:	0104a423          	sw	a6,8(s1)
   12694:	00f4a223          	sw	a5,4(s1)
   12698:	00e40733          	add	a4,s0,a4
   1269c:	00098513          	mv	a0,s3
   126a0:	00d72023          	sw	a3,0(a4)
   126a4:	33c000ef          	jal	129e0 <__malloc_unlock>
   126a8:	00840513          	addi	a0,s0,8
   126ac:	c01ff06f          	j	122ac <_malloc_r+0x8c>
   126b0:	00f407b3          	add	a5,s0,a5
   126b4:	0047a703          	lw	a4,4(a5)
   126b8:	00098513          	mv	a0,s3
   126bc:	00176713          	ori	a4,a4,1
   126c0:	00e7a223          	sw	a4,4(a5)
   126c4:	31c000ef          	jal	129e0 <__malloc_unlock>
   126c8:	00840513          	addi	a0,s0,8
   126cc:	be1ff06f          	j	122ac <_malloc_r+0x8c>
   126d0:	0034d593          	srli	a1,s1,0x3
   126d4:	00848793          	addi	a5,s1,8
   126d8:	b89ff06f          	j	12260 <_malloc_r+0x40>
   126dc:	0014e693          	ori	a3,s1,1
   126e0:	00d42223          	sw	a3,4(s0)
   126e4:	009404b3          	add	s1,s0,s1
   126e8:	00992a23          	sw	s1,20(s2)
   126ec:	00992823          	sw	s1,16(s2)
   126f0:	00176693          	ori	a3,a4,1
   126f4:	0104a623          	sw	a6,12(s1)
   126f8:	0104a423          	sw	a6,8(s1)
   126fc:	00d4a223          	sw	a3,4(s1)
   12700:	00f407b3          	add	a5,s0,a5
   12704:	00098513          	mv	a0,s3
   12708:	00e7a023          	sw	a4,0(a5)
   1270c:	2d4000ef          	jal	129e0 <__malloc_unlock>
   12710:	00840513          	addi	a0,s0,8
   12714:	b99ff06f          	j	122ac <_malloc_r+0x8c>
   12718:	0067d713          	srli	a4,a5,0x6
   1271c:	03970613          	addi	a2,a4,57
   12720:	03870693          	addi	a3,a4,56
   12724:	00361613          	slli	a2,a2,0x3
   12728:	ec5ff06f          	j	125ec <_malloc_r+0x3cc>
   1272c:	07240c63          	beq	s0,s2,127a4 <_malloc_r+0x584>
   12730:	00892403          	lw	s0,8(s2)
   12734:	00812c03          	lw	s8,8(sp)
   12738:	00442783          	lw	a5,4(s0)
   1273c:	e09ff06f          	j	12544 <_malloc_r+0x324>
   12740:	05c78593          	addi	a1,a5,92
   12744:	05b78813          	addi	a6,a5,91
   12748:	00359613          	slli	a2,a1,0x3
   1274c:	bb5ff06f          	j	12300 <_malloc_r+0xe0>
   12750:	00832783          	lw	a5,8(t1)
   12754:	fff58593          	addi	a1,a1,-1
   12758:	26679e63          	bne	a5,t1,129d4 <_malloc_r+0x7b4>
   1275c:	0035f793          	andi	a5,a1,3
   12760:	ff830313          	addi	t1,t1,-8
   12764:	fe0796e3          	bnez	a5,12750 <_malloc_r+0x530>
   12768:	00492703          	lw	a4,4(s2)
   1276c:	fff64793          	not	a5,a2
   12770:	00e7f7b3          	and	a5,a5,a4
   12774:	00f92223          	sw	a5,4(s2)
   12778:	00161613          	slli	a2,a2,0x1
   1277c:	cec7eee3          	bltu	a5,a2,12478 <_malloc_r+0x258>
   12780:	ce060ce3          	beqz	a2,12478 <_malloc_r+0x258>
   12784:	00f67733          	and	a4,a2,a5
   12788:	00071a63          	bnez	a4,1279c <_malloc_r+0x57c>
   1278c:	00161613          	slli	a2,a2,0x1
   12790:	00f67733          	and	a4,a2,a5
   12794:	004e0e13          	addi	t3,t3,4
   12798:	fe070ae3          	beqz	a4,1278c <_malloc_r+0x56c>
   1279c:	000e0593          	mv	a1,t3
   127a0:	c59ff06f          	j	123f8 <_malloc_r+0x1d8>
   127a4:	08c18c13          	addi	s8,gp,140 # 24a64 <__malloc_current_mallinfo>
   127a8:	000c2703          	lw	a4,0(s8)
   127ac:	00ea8733          	add	a4,s5,a4
   127b0:	00ec2023          	sw	a4,0(s8)
   127b4:	f101a683          	lw	a3,-240(gp) # 248e8 <__malloc_sbrk_base>
   127b8:	fff00793          	li	a5,-1
   127bc:	18f68663          	beq	a3,a5,12948 <_malloc_r+0x728>
   127c0:	414b87b3          	sub	a5,s7,s4
   127c4:	00e787b3          	add	a5,a5,a4
   127c8:	00fc2023          	sw	a5,0(s8)
   127cc:	007bfc93          	andi	s9,s7,7
   127d0:	0c0c8c63          	beqz	s9,128a8 <_malloc_r+0x688>
   127d4:	419b8bb3          	sub	s7,s7,s9
   127d8:	000017b7          	lui	a5,0x1
   127dc:	00878793          	addi	a5,a5,8 # 1008 <exit-0xf08c>
   127e0:	008b8b93          	addi	s7,s7,8
   127e4:	419785b3          	sub	a1,a5,s9
   127e8:	015b8ab3          	add	s5,s7,s5
   127ec:	415585b3          	sub	a1,a1,s5
   127f0:	01459593          	slli	a1,a1,0x14
   127f4:	0145da13          	srli	s4,a1,0x14
   127f8:	000a0593          	mv	a1,s4
   127fc:	00098513          	mv	a0,s3
   12800:	275030ef          	jal	16274 <_sbrk_r>
   12804:	fff00793          	li	a5,-1
   12808:	18f50063          	beq	a0,a5,12988 <_malloc_r+0x768>
   1280c:	41750533          	sub	a0,a0,s7
   12810:	01450ab3          	add	s5,a0,s4
   12814:	000c2703          	lw	a4,0(s8)
   12818:	01792423          	sw	s7,8(s2)
   1281c:	001ae793          	ori	a5,s5,1
   12820:	00ea05b3          	add	a1,s4,a4
   12824:	00bc2023          	sw	a1,0(s8)
   12828:	00fba223          	sw	a5,4(s7)
   1282c:	cf240ce3          	beq	s0,s2,12524 <_malloc_r+0x304>
   12830:	00f00693          	li	a3,15
   12834:	0b66f063          	bgeu	a3,s6,128d4 <_malloc_r+0x6b4>
   12838:	00442703          	lw	a4,4(s0)
   1283c:	ff4b0793          	addi	a5,s6,-12
   12840:	ff87f793          	andi	a5,a5,-8
   12844:	00177713          	andi	a4,a4,1
   12848:	00f76733          	or	a4,a4,a5
   1284c:	00e42223          	sw	a4,4(s0)
   12850:	00500613          	li	a2,5
   12854:	00f40733          	add	a4,s0,a5
   12858:	00c72223          	sw	a2,4(a4)
   1285c:	00c72423          	sw	a2,8(a4)
   12860:	00f6e663          	bltu	a3,a5,1286c <_malloc_r+0x64c>
   12864:	004ba783          	lw	a5,4(s7)
   12868:	cbdff06f          	j	12524 <_malloc_r+0x304>
   1286c:	00840593          	addi	a1,s0,8
   12870:	00098513          	mv	a0,s3
   12874:	ea8ff0ef          	jal	11f1c <_free_r>
   12878:	00892b83          	lw	s7,8(s2)
   1287c:	000c2583          	lw	a1,0(s8)
   12880:	004ba783          	lw	a5,4(s7)
   12884:	ca1ff06f          	j	12524 <_malloc_r+0x304>
   12888:	010a8a93          	addi	s5,s5,16
   1288c:	c49ff06f          	j	124d4 <_malloc_r+0x2b4>
   12890:	4026d693          	srai	a3,a3,0x2
   12894:	00100793          	li	a5,1
   12898:	00d797b3          	sll	a5,a5,a3
   1289c:	00f56533          	or	a0,a0,a5
   128a0:	00a92223          	sw	a0,4(s2)
   128a4:	d75ff06f          	j	12618 <_malloc_r+0x3f8>
   128a8:	015b85b3          	add	a1,s7,s5
   128ac:	40b005b3          	neg	a1,a1
   128b0:	01459593          	slli	a1,a1,0x14
   128b4:	0145da13          	srli	s4,a1,0x14
   128b8:	000a0593          	mv	a1,s4
   128bc:	00098513          	mv	a0,s3
   128c0:	1b5030ef          	jal	16274 <_sbrk_r>
   128c4:	fff00793          	li	a5,-1
   128c8:	f4f512e3          	bne	a0,a5,1280c <_malloc_r+0x5ec>
   128cc:	00000a13          	li	s4,0
   128d0:	f45ff06f          	j	12814 <_malloc_r+0x5f4>
   128d4:	00812c03          	lw	s8,8(sp)
   128d8:	00100793          	li	a5,1
   128dc:	00fba223          	sw	a5,4(s7)
   128e0:	00098513          	mv	a0,s3
   128e4:	0fc000ef          	jal	129e0 <__malloc_unlock>
   128e8:	00000513          	li	a0,0
   128ec:	01812a03          	lw	s4,24(sp)
   128f0:	01412a83          	lw	s5,20(sp)
   128f4:	01012b03          	lw	s6,16(sp)
   128f8:	00c12b83          	lw	s7,12(sp)
   128fc:	00412c83          	lw	s9,4(sp)
   12900:	9adff06f          	j	122ac <_malloc_r+0x8c>
   12904:	05400693          	li	a3,84
   12908:	04e6e463          	bltu	a3,a4,12950 <_malloc_r+0x730>
   1290c:	00c7d713          	srli	a4,a5,0xc
   12910:	06f70613          	addi	a2,a4,111
   12914:	06e70693          	addi	a3,a4,110
   12918:	00361613          	slli	a2,a2,0x3
   1291c:	cd1ff06f          	j	125ec <_malloc_r+0x3cc>
   12920:	15400713          	li	a4,340
   12924:	04f76463          	bltu	a4,a5,1296c <_malloc_r+0x74c>
   12928:	00f4d793          	srli	a5,s1,0xf
   1292c:	07878593          	addi	a1,a5,120
   12930:	07778813          	addi	a6,a5,119
   12934:	00359613          	slli	a2,a1,0x3
   12938:	9c9ff06f          	j	12300 <_malloc_r+0xe0>
   1293c:	00892403          	lw	s0,8(s2)
   12940:	00442783          	lw	a5,4(s0)
   12944:	c01ff06f          	j	12544 <_malloc_r+0x324>
   12948:	f171a823          	sw	s7,-240(gp) # 248e8 <__malloc_sbrk_base>
   1294c:	e81ff06f          	j	127cc <_malloc_r+0x5ac>
   12950:	15400693          	li	a3,340
   12954:	04e6e463          	bltu	a3,a4,1299c <_malloc_r+0x77c>
   12958:	00f7d713          	srli	a4,a5,0xf
   1295c:	07870613          	addi	a2,a4,120
   12960:	07770693          	addi	a3,a4,119
   12964:	00361613          	slli	a2,a2,0x3
   12968:	c85ff06f          	j	125ec <_malloc_r+0x3cc>
   1296c:	55400713          	li	a4,1364
   12970:	04f76463          	bltu	a4,a5,129b8 <_malloc_r+0x798>
   12974:	0124d793          	srli	a5,s1,0x12
   12978:	07d78593          	addi	a1,a5,125
   1297c:	07c78813          	addi	a6,a5,124
   12980:	00359613          	slli	a2,a1,0x3
   12984:	97dff06f          	j	12300 <_malloc_r+0xe0>
   12988:	ff8c8c93          	addi	s9,s9,-8
   1298c:	019a8ab3          	add	s5,s5,s9
   12990:	417a8ab3          	sub	s5,s5,s7
   12994:	00000a13          	li	s4,0
   12998:	e7dff06f          	j	12814 <_malloc_r+0x5f4>
   1299c:	55400693          	li	a3,1364
   129a0:	02e6e463          	bltu	a3,a4,129c8 <_malloc_r+0x7a8>
   129a4:	0127d713          	srli	a4,a5,0x12
   129a8:	07d70613          	addi	a2,a4,125
   129ac:	07c70693          	addi	a3,a4,124
   129b0:	00361613          	slli	a2,a2,0x3
   129b4:	c39ff06f          	j	125ec <_malloc_r+0x3cc>
   129b8:	3f800613          	li	a2,1016
   129bc:	07f00593          	li	a1,127
   129c0:	07e00813          	li	a6,126
   129c4:	93dff06f          	j	12300 <_malloc_r+0xe0>
   129c8:	3f800613          	li	a2,1016
   129cc:	07e00693          	li	a3,126
   129d0:	c1dff06f          	j	125ec <_malloc_r+0x3cc>
   129d4:	00492783          	lw	a5,4(s2)
   129d8:	da1ff06f          	j	12778 <_malloc_r+0x558>

000129dc <__malloc_lock>:
   129dc:	00008067          	ret

000129e0 <__malloc_unlock>:
   129e0:	00008067          	ret

000129e4 <_vfprintf_r>:
   129e4:	e3010113          	addi	sp,sp,-464
   129e8:	1c112623          	sw	ra,460(sp)
   129ec:	1c812423          	sw	s0,456(sp)
   129f0:	1c912223          	sw	s1,452(sp)
   129f4:	1b612823          	sw	s6,432(sp)
   129f8:	00058493          	mv	s1,a1
   129fc:	00060b13          	mv	s6,a2
   12a00:	00d12623          	sw	a3,12(sp)
   12a04:	00050413          	mv	s0,a0
   12a08:	02a12223          	sw	a0,36(sp)
   12a0c:	059030ef          	jal	16264 <_localeconv_r>
   12a10:	00052703          	lw	a4,0(a0)
   12a14:	00070513          	mv	a0,a4
   12a18:	02e12623          	sw	a4,44(sp)
   12a1c:	9f4ff0ef          	jal	11c10 <strlen>
   12a20:	02a12423          	sw	a0,40(sp)
   12a24:	0c012823          	sw	zero,208(sp)
   12a28:	0c012a23          	sw	zero,212(sp)
   12a2c:	0c012c23          	sw	zero,216(sp)
   12a30:	0c012e23          	sw	zero,220(sp)
   12a34:	00040863          	beqz	s0,12a44 <_vfprintf_r+0x60>
   12a38:	03442703          	lw	a4,52(s0)
   12a3c:	00071463          	bnez	a4,12a44 <_vfprintf_r+0x60>
   12a40:	11d0106f          	j	1435c <_vfprintf_r+0x1978>
   12a44:	00c49683          	lh	a3,12(s1)
   12a48:	0644a703          	lw	a4,100(s1)
   12a4c:	01269613          	slli	a2,a3,0x12
   12a50:	02064063          	bltz	a2,12a70 <_vfprintf_r+0x8c>
   12a54:	ffffe637          	lui	a2,0xffffe
   12a58:	fff60613          	addi	a2,a2,-1 # ffffdfff <__BSS_END__+0xfffd93e3>
   12a5c:	000025b7          	lui	a1,0x2
   12a60:	00b6e6b3          	or	a3,a3,a1
   12a64:	00c77733          	and	a4,a4,a2
   12a68:	00d49623          	sh	a3,12(s1)
   12a6c:	06e4a223          	sw	a4,100(s1)
   12a70:	01271693          	slli	a3,a4,0x12
   12a74:	0006d463          	bgez	a3,12a7c <_vfprintf_r+0x98>
   12a78:	3d80206f          	j	14e50 <_vfprintf_r+0x246c>
   12a7c:	00c49703          	lh	a4,12(s1)
   12a80:	00877693          	andi	a3,a4,8
   12a84:	30068463          	beqz	a3,12d8c <_vfprintf_r+0x3a8>
   12a88:	0104a683          	lw	a3,16(s1)
   12a8c:	30068063          	beqz	a3,12d8c <_vfprintf_r+0x3a8>
   12a90:	01a77713          	andi	a4,a4,26
   12a94:	00a00693          	li	a3,10
   12a98:	30d70c63          	beq	a4,a3,12db0 <_vfprintf_r+0x3cc>
   12a9c:	1b312e23          	sw	s3,444(sp)
   12aa0:	1b512a23          	sw	s5,436(sp)
   12aa4:	1b712623          	sw	s7,428(sp)
   12aa8:	1ba12023          	sw	s10,416(sp)
   12aac:	00023737          	lui	a4,0x23
   12ab0:	1d212023          	sw	s2,448(sp)
   12ab4:	1b412c23          	sw	s4,440(sp)
   12ab8:	1b812423          	sw	s8,424(sp)
   12abc:	1b912223          	sw	s9,420(sp)
   12ac0:	19b12e23          	sw	s11,412(sp)
   12ac4:	000b0d13          	mv	s10,s6
   12ac8:	9e870793          	addi	a5,a4,-1560 # 229e8 <_luts.0+0x33c>
   12acc:	000d4703          	lbu	a4,0(s10)
   12ad0:	0ec10993          	addi	s3,sp,236
   12ad4:	00023ab7          	lui	s5,0x23
   12ad8:	0d312223          	sw	s3,196(sp)
   12adc:	0c012623          	sw	zero,204(sp)
   12ae0:	0c012423          	sw	zero,200(sp)
   12ae4:	00012c23          	sw	zero,24(sp)
   12ae8:	02012823          	sw	zero,48(sp)
   12aec:	02012e23          	sw	zero,60(sp)
   12af0:	02012c23          	sw	zero,56(sp)
   12af4:	04012023          	sw	zero,64(sp)
   12af8:	04012223          	sw	zero,68(sp)
   12afc:	00012223          	sw	zero,4(sp)
   12b00:	00f12823          	sw	a5,16(sp)
   12b04:	02412b83          	lw	s7,36(sp)
   12b08:	00098413          	mv	s0,s3
   12b0c:	beca8a93          	addi	s5,s5,-1044 # 22bec <zeroes.0>
   12b10:	22070063          	beqz	a4,12d30 <_vfprintf_r+0x34c>
   12b14:	000d0913          	mv	s2,s10
   12b18:	02500693          	li	a3,37
   12b1c:	3ed70863          	beq	a4,a3,12f0c <_vfprintf_r+0x528>
   12b20:	00194703          	lbu	a4,1(s2)
   12b24:	00190913          	addi	s2,s2,1
   12b28:	fe071ae3          	bnez	a4,12b1c <_vfprintf_r+0x138>
   12b2c:	41a90a33          	sub	s4,s2,s10
   12b30:	21a90063          	beq	s2,s10,12d30 <_vfprintf_r+0x34c>
   12b34:	0cc12683          	lw	a3,204(sp)
   12b38:	0c812703          	lw	a4,200(sp)
   12b3c:	01a42023          	sw	s10,0(s0)
   12b40:	014686b3          	add	a3,a3,s4
   12b44:	00170713          	addi	a4,a4,1
   12b48:	01442223          	sw	s4,4(s0)
   12b4c:	0cd12623          	sw	a3,204(sp)
   12b50:	0ce12423          	sw	a4,200(sp)
   12b54:	00700693          	li	a3,7
   12b58:	00840413          	addi	s0,s0,8
   12b5c:	3ce6c063          	blt	a3,a4,12f1c <_vfprintf_r+0x538>
   12b60:	00412783          	lw	a5,4(sp)
   12b64:	00094703          	lbu	a4,0(s2)
   12b68:	014787b3          	add	a5,a5,s4
   12b6c:	00f12223          	sw	a5,4(sp)
   12b70:	1c070063          	beqz	a4,12d30 <_vfprintf_r+0x34c>
   12b74:	00194883          	lbu	a7,1(s2)
   12b78:	0a0103a3          	sb	zero,167(sp)
   12b7c:	00190913          	addi	s2,s2,1
   12b80:	fff00a13          	li	s4,-1
   12b84:	00000c93          	li	s9,0
   12b88:	00000d93          	li	s11,0
   12b8c:	05a00b13          	li	s6,90
   12b90:	00190913          	addi	s2,s2,1
   12b94:	fe088793          	addi	a5,a7,-32
   12b98:	04fb6663          	bltu	s6,a5,12be4 <_vfprintf_r+0x200>
   12b9c:	01012703          	lw	a4,16(sp)
   12ba0:	00279793          	slli	a5,a5,0x2
   12ba4:	00e787b3          	add	a5,a5,a4
   12ba8:	0007a783          	lw	a5,0(a5)
   12bac:	00078067          	jr	a5
   12bb0:	00000c93          	li	s9,0
   12bb4:	fd088793          	addi	a5,a7,-48
   12bb8:	00900693          	li	a3,9
   12bbc:	00094883          	lbu	a7,0(s2)
   12bc0:	002c9713          	slli	a4,s9,0x2
   12bc4:	01970cb3          	add	s9,a4,s9
   12bc8:	001c9c93          	slli	s9,s9,0x1
   12bcc:	01978cb3          	add	s9,a5,s9
   12bd0:	fd088793          	addi	a5,a7,-48
   12bd4:	00190913          	addi	s2,s2,1
   12bd8:	fef6f2e3          	bgeu	a3,a5,12bbc <_vfprintf_r+0x1d8>
   12bdc:	fe088793          	addi	a5,a7,-32
   12be0:	fafb7ee3          	bgeu	s6,a5,12b9c <_vfprintf_r+0x1b8>
   12be4:	14088663          	beqz	a7,12d30 <_vfprintf_r+0x34c>
   12be8:	13110623          	sb	a7,300(sp)
   12bec:	0a0103a3          	sb	zero,167(sp)
   12bf0:	00100c13          	li	s8,1
   12bf4:	00100b13          	li	s6,1
   12bf8:	12c10d13          	addi	s10,sp,300
   12bfc:	00012423          	sw	zero,8(sp)
   12c00:	00000a13          	li	s4,0
   12c04:	02012023          	sw	zero,32(sp)
   12c08:	00012e23          	sw	zero,28(sp)
   12c0c:	00012a23          	sw	zero,20(sp)
   12c10:	002df293          	andi	t0,s11,2
   12c14:	00028463          	beqz	t0,12c1c <_vfprintf_r+0x238>
   12c18:	002c0c13          	addi	s8,s8,2
   12c1c:	084dff93          	andi	t6,s11,132
   12c20:	0cc12603          	lw	a2,204(sp)
   12c24:	000f9663          	bnez	t6,12c30 <_vfprintf_r+0x24c>
   12c28:	418c8733          	sub	a4,s9,s8
   12c2c:	46e04ce3          	bgtz	a4,138a4 <_vfprintf_r+0xec0>
   12c30:	0a714703          	lbu	a4,167(sp)
   12c34:	02070a63          	beqz	a4,12c68 <_vfprintf_r+0x284>
   12c38:	0c812703          	lw	a4,200(sp)
   12c3c:	0a710593          	addi	a1,sp,167
   12c40:	00b42023          	sw	a1,0(s0)
   12c44:	00160613          	addi	a2,a2,1
   12c48:	00100593          	li	a1,1
   12c4c:	00170713          	addi	a4,a4,1
   12c50:	00b42223          	sw	a1,4(s0)
   12c54:	0cc12623          	sw	a2,204(sp)
   12c58:	0ce12423          	sw	a4,200(sp)
   12c5c:	00700593          	li	a1,7
   12c60:	00840413          	addi	s0,s0,8
   12c64:	3ee5c463          	blt	a1,a4,1304c <_vfprintf_r+0x668>
   12c68:	02028a63          	beqz	t0,12c9c <_vfprintf_r+0x2b8>
   12c6c:	0c812703          	lw	a4,200(sp)
   12c70:	00200593          	li	a1,2
   12c74:	00260613          	addi	a2,a2,2
   12c78:	00170713          	addi	a4,a4,1
   12c7c:	0a810793          	addi	a5,sp,168
   12c80:	00b42223          	sw	a1,4(s0)
   12c84:	00f42023          	sw	a5,0(s0)
   12c88:	0cc12623          	sw	a2,204(sp)
   12c8c:	0ce12423          	sw	a4,200(sp)
   12c90:	00700593          	li	a1,7
   12c94:	00840413          	addi	s0,s0,8
   12c98:	50e5cce3          	blt	a1,a4,139b0 <_vfprintf_r+0xfcc>
   12c9c:	08000713          	li	a4,128
   12ca0:	1eef8ee3          	beq	t6,a4,1369c <_vfprintf_r+0xcb8>
   12ca4:	416a0a33          	sub	s4,s4,s6
   12ca8:	2f4044e3          	bgtz	s4,13790 <_vfprintf_r+0xdac>
   12cac:	100df713          	andi	a4,s11,256
   12cb0:	040718e3          	bnez	a4,13500 <_vfprintf_r+0xb1c>
   12cb4:	0c812783          	lw	a5,200(sp)
   12cb8:	01660633          	add	a2,a2,s6
   12cbc:	01a42023          	sw	s10,0(s0)
   12cc0:	00178793          	addi	a5,a5,1
   12cc4:	01642223          	sw	s6,4(s0)
   12cc8:	0cc12623          	sw	a2,204(sp)
   12ccc:	0cf12423          	sw	a5,200(sp)
   12cd0:	00700713          	li	a4,7
   12cd4:	4cf74063          	blt	a4,a5,13194 <_vfprintf_r+0x7b0>
   12cd8:	00840413          	addi	s0,s0,8
   12cdc:	004dfe13          	andi	t3,s11,4
   12ce0:	000e0663          	beqz	t3,12cec <_vfprintf_r+0x308>
   12ce4:	418c8a33          	sub	s4,s9,s8
   12ce8:	4f404ce3          	bgtz	s4,139e0 <_vfprintf_r+0xffc>
   12cec:	000c8313          	mv	t1,s9
   12cf0:	018cd463          	bge	s9,s8,12cf8 <_vfprintf_r+0x314>
   12cf4:	000c0313          	mv	t1,s8
   12cf8:	00412783          	lw	a5,4(sp)
   12cfc:	006787b3          	add	a5,a5,t1
   12d00:	00f12223          	sw	a5,4(sp)
   12d04:	360618e3          	bnez	a2,13874 <_vfprintf_r+0xe90>
   12d08:	00812783          	lw	a5,8(sp)
   12d0c:	0c012423          	sw	zero,200(sp)
   12d10:	00078863          	beqz	a5,12d20 <_vfprintf_r+0x33c>
   12d14:	00812583          	lw	a1,8(sp)
   12d18:	000b8513          	mv	a0,s7
   12d1c:	a00ff0ef          	jal	11f1c <_free_r>
   12d20:	00098413          	mv	s0,s3
   12d24:	00090d13          	mv	s10,s2
   12d28:	000d4703          	lbu	a4,0(s10)
   12d2c:	de0714e3          	bnez	a4,12b14 <_vfprintf_r+0x130>
   12d30:	0cc12783          	lw	a5,204(sp)
   12d34:	00078463          	beqz	a5,12d3c <_vfprintf_r+0x358>
   12d38:	3890106f          	j	148c0 <_vfprintf_r+0x1edc>
   12d3c:	00c4d783          	lhu	a5,12(s1)
   12d40:	1c012903          	lw	s2,448(sp)
   12d44:	1bc12983          	lw	s3,444(sp)
   12d48:	0407f793          	andi	a5,a5,64
   12d4c:	1b812a03          	lw	s4,440(sp)
   12d50:	1b412a83          	lw	s5,436(sp)
   12d54:	1ac12b83          	lw	s7,428(sp)
   12d58:	1a812c03          	lw	s8,424(sp)
   12d5c:	1a412c83          	lw	s9,420(sp)
   12d60:	1a012d03          	lw	s10,416(sp)
   12d64:	19c12d83          	lw	s11,412(sp)
   12d68:	00078463          	beqz	a5,12d70 <_vfprintf_r+0x38c>
   12d6c:	0e40206f          	j	14e50 <_vfprintf_r+0x246c>
   12d70:	1cc12083          	lw	ra,460(sp)
   12d74:	1c812403          	lw	s0,456(sp)
   12d78:	00412503          	lw	a0,4(sp)
   12d7c:	1c412483          	lw	s1,452(sp)
   12d80:	1b012b03          	lw	s6,432(sp)
   12d84:	1d010113          	addi	sp,sp,464
   12d88:	00008067          	ret
   12d8c:	02412503          	lw	a0,36(sp)
   12d90:	00048593          	mv	a1,s1
   12d94:	218030ef          	jal	15fac <__swsetup_r>
   12d98:	00050463          	beqz	a0,12da0 <_vfprintf_r+0x3bc>
   12d9c:	0b40206f          	j	14e50 <_vfprintf_r+0x246c>
   12da0:	00c49703          	lh	a4,12(s1)
   12da4:	00a00693          	li	a3,10
   12da8:	01a77713          	andi	a4,a4,26
   12dac:	ced718e3          	bne	a4,a3,12a9c <_vfprintf_r+0xb8>
   12db0:	00e49703          	lh	a4,14(s1)
   12db4:	ce0744e3          	bltz	a4,12a9c <_vfprintf_r+0xb8>
   12db8:	00c12683          	lw	a3,12(sp)
   12dbc:	02412503          	lw	a0,36(sp)
   12dc0:	000b0613          	mv	a2,s6
   12dc4:	00048593          	mv	a1,s1
   12dc8:	4cc020ef          	jal	15294 <__sbprintf>
   12dcc:	00a12223          	sw	a0,4(sp)
   12dd0:	fa1ff06f          	j	12d70 <_vfprintf_r+0x38c>
   12dd4:	000b8513          	mv	a0,s7
   12dd8:	48c030ef          	jal	16264 <_localeconv_r>
   12ddc:	00452783          	lw	a5,4(a0)
   12de0:	00078513          	mv	a0,a5
   12de4:	04f12223          	sw	a5,68(sp)
   12de8:	e29fe0ef          	jal	11c10 <strlen>
   12dec:	00050793          	mv	a5,a0
   12df0:	000b8513          	mv	a0,s7
   12df4:	00078c13          	mv	s8,a5
   12df8:	04f12023          	sw	a5,64(sp)
   12dfc:	468030ef          	jal	16264 <_localeconv_r>
   12e00:	00852703          	lw	a4,8(a0)
   12e04:	02e12c23          	sw	a4,56(sp)
   12e08:	720c1ee3          	bnez	s8,13d44 <_vfprintf_r+0x1360>
   12e0c:	00094883          	lbu	a7,0(s2)
   12e10:	d81ff06f          	j	12b90 <_vfprintf_r+0x1ac>
   12e14:	00094883          	lbu	a7,0(s2)
   12e18:	020ded93          	ori	s11,s11,32
   12e1c:	d75ff06f          	j	12b90 <_vfprintf_r+0x1ac>
   12e20:	010ded93          	ori	s11,s11,16
   12e24:	020df793          	andi	a5,s11,32
   12e28:	38078663          	beqz	a5,131b4 <_vfprintf_r+0x7d0>
   12e2c:	00c12783          	lw	a5,12(sp)
   12e30:	00778c13          	addi	s8,a5,7
   12e34:	ff8c7c13          	andi	s8,s8,-8
   12e38:	004c2783          	lw	a5,4(s8)
   12e3c:	000c2b03          	lw	s6,0(s8)
   12e40:	008c0713          	addi	a4,s8,8
   12e44:	00e12623          	sw	a4,12(sp)
   12e48:	00078813          	mv	a6,a5
   12e4c:	3807ce63          	bltz	a5,131e8 <_vfprintf_r+0x804>
   12e50:	000d8613          	mv	a2,s11
   12e54:	4e0a4e63          	bltz	s4,13350 <_vfprintf_r+0x96c>
   12e58:	010b67b3          	or	a5,s6,a6
   12e5c:	f7fdf613          	andi	a2,s11,-129
   12e60:	4e079863          	bnez	a5,13350 <_vfprintf_r+0x96c>
   12e64:	4e0a1c63          	bnez	s4,1335c <_vfprintf_r+0x978>
   12e68:	00000b13          	li	s6,0
   12e6c:	00060d93          	mv	s11,a2
   12e70:	19010d13          	addi	s10,sp,400
   12e74:	0a714703          	lbu	a4,167(sp)
   12e78:	000a0c13          	mv	s8,s4
   12e7c:	016a5463          	bge	s4,s6,12e84 <_vfprintf_r+0x4a0>
   12e80:	000b0c13          	mv	s8,s6
   12e84:	00012423          	sw	zero,8(sp)
   12e88:	02012023          	sw	zero,32(sp)
   12e8c:	00012e23          	sw	zero,28(sp)
   12e90:	00012a23          	sw	zero,20(sp)
   12e94:	d6070ee3          	beqz	a4,12c10 <_vfprintf_r+0x22c>
   12e98:	001c0c13          	addi	s8,s8,1
   12e9c:	d75ff06f          	j	12c10 <_vfprintf_r+0x22c>
   12ea0:	010ded93          	ori	s11,s11,16
   12ea4:	020df793          	andi	a5,s11,32
   12ea8:	3c078863          	beqz	a5,13278 <_vfprintf_r+0x894>
   12eac:	00c12783          	lw	a5,12(sp)
   12eb0:	00778c13          	addi	s8,a5,7
   12eb4:	ff8c7c13          	andi	s8,s8,-8
   12eb8:	000c2b03          	lw	s6,0(s8)
   12ebc:	004c2803          	lw	a6,4(s8)
   12ec0:	008c0793          	addi	a5,s8,8
   12ec4:	00f12623          	sw	a5,12(sp)
   12ec8:	bffdf613          	andi	a2,s11,-1025
   12ecc:	00000793          	li	a5,0
   12ed0:	00000693          	li	a3,0
   12ed4:	0ad103a3          	sb	a3,167(sp)
   12ed8:	320a4a63          	bltz	s4,1320c <_vfprintf_r+0x828>
   12edc:	010b66b3          	or	a3,s6,a6
   12ee0:	f7f67d93          	andi	s11,a2,-129
   12ee4:	1a069ce3          	bnez	a3,1389c <_vfprintf_r+0xeb8>
   12ee8:	740a1c63          	bnez	s4,13640 <_vfprintf_r+0xc5c>
   12eec:	5e0796e3          	bnez	a5,13cd8 <_vfprintf_r+0x12f4>
   12ef0:	00167b13          	andi	s6,a2,1
   12ef4:	19010d13          	addi	s10,sp,400
   12ef8:	f60b0ee3          	beqz	s6,12e74 <_vfprintf_r+0x490>
   12efc:	03000793          	li	a5,48
   12f00:	18f107a3          	sb	a5,399(sp)
   12f04:	18f10d13          	addi	s10,sp,399
   12f08:	f6dff06f          	j	12e74 <_vfprintf_r+0x490>
   12f0c:	41a90a33          	sub	s4,s2,s10
   12f10:	c3a912e3          	bne	s2,s10,12b34 <_vfprintf_r+0x150>
   12f14:	00094703          	lbu	a4,0(s2)
   12f18:	c59ff06f          	j	12b70 <_vfprintf_r+0x18c>
   12f1c:	0c410613          	addi	a2,sp,196
   12f20:	00048593          	mv	a1,s1
   12f24:	000b8513          	mv	a0,s7
   12f28:	438020ef          	jal	15360 <__sprint_r>
   12f2c:	e00518e3          	bnez	a0,12d3c <_vfprintf_r+0x358>
   12f30:	00098413          	mv	s0,s3
   12f34:	c2dff06f          	j	12b60 <_vfprintf_r+0x17c>
   12f38:	008df713          	andi	a4,s11,8
   12f3c:	64071ce3          	bnez	a4,13d94 <_vfprintf_r+0x13b0>
   12f40:	00c12783          	lw	a5,12(sp)
   12f44:	09010513          	addi	a0,sp,144
   12f48:	01112423          	sw	a7,8(sp)
   12f4c:	00778c13          	addi	s8,a5,7
   12f50:	ff8c7c13          	andi	s8,s8,-8
   12f54:	000c2583          	lw	a1,0(s8)
   12f58:	004c2603          	lw	a2,4(s8)
   12f5c:	008c0793          	addi	a5,s8,8
   12f60:	00f12623          	sw	a5,12(sp)
   12f64:	3840f0ef          	jal	222e8 <__extenddftf2>
   12f68:	09012583          	lw	a1,144(sp)
   12f6c:	09412603          	lw	a2,148(sp)
   12f70:	09812683          	lw	a3,152(sp)
   12f74:	09c12703          	lw	a4,156(sp)
   12f78:	00812883          	lw	a7,8(sp)
   12f7c:	0d010513          	addi	a0,sp,208
   12f80:	01112423          	sw	a7,8(sp)
   12f84:	0ce12e23          	sw	a4,220(sp)
   12f88:	0cb12823          	sw	a1,208(sp)
   12f8c:	0cc12a23          	sw	a2,212(sp)
   12f90:	0cd12c23          	sw	a3,216(sp)
   12f94:	309030ef          	jal	16a9c <_ldcheck>
   12f98:	0aa12623          	sw	a0,172(sp)
   12f9c:	00200713          	li	a4,2
   12fa0:	00812883          	lw	a7,8(sp)
   12fa4:	00e51463          	bne	a0,a4,12fac <_vfprintf_r+0x5c8>
   12fa8:	4100106f          	j	143b8 <_vfprintf_r+0x19d4>
   12fac:	00100713          	li	a4,1
   12fb0:	00e51463          	bne	a0,a4,12fb8 <_vfprintf_r+0x5d4>
   12fb4:	5640106f          	j	14518 <_vfprintf_r+0x1b34>
   12fb8:	06100713          	li	a4,97
   12fbc:	00e89463          	bne	a7,a4,12fc4 <_vfprintf_r+0x5e0>
   12fc0:	7b10006f          	j	13f70 <_vfprintf_r+0x158c>
   12fc4:	04100713          	li	a4,65
   12fc8:	05800793          	li	a5,88
   12fcc:	00e89463          	bne	a7,a4,12fd4 <_vfprintf_r+0x5f0>
   12fd0:	7a50006f          	j	13f74 <_vfprintf_r+0x1590>
   12fd4:	fff00713          	li	a4,-1
   12fd8:	00ea1463          	bne	s4,a4,12fe0 <_vfprintf_r+0x5fc>
   12fdc:	0f40206f          	j	150d0 <_vfprintf_r+0x26ec>
   12fe0:	fdf8f713          	andi	a4,a7,-33
   12fe4:	04700693          	li	a3,71
   12fe8:	00012423          	sw	zero,8(sp)
   12fec:	00d71663          	bne	a4,a3,12ff8 <_vfprintf_r+0x614>
   12ff0:	000a1463          	bnez	s4,12ff8 <_vfprintf_r+0x614>
   12ff4:	00100a13          	li	s4,1
   12ff8:	0dc12c03          	lw	s8,220(sp)
   12ffc:	100de793          	ori	a5,s11,256
   13000:	04f12423          	sw	a5,72(sp)
   13004:	02012a23          	sw	zero,52(sp)
   13008:	0d012f83          	lw	t6,208(sp)
   1300c:	0d412f03          	lw	t5,212(sp)
   13010:	0d812e83          	lw	t4,216(sp)
   13014:	000c5a63          	bgez	s8,13028 <_vfprintf_r+0x644>
   13018:	80000737          	lui	a4,0x80000
   1301c:	02d00793          	li	a5,45
   13020:	01874c33          	xor	s8,a4,s8
   13024:	02f12a23          	sw	a5,52(sp)
   13028:	fbf88713          	addi	a4,a7,-65
   1302c:	02500693          	li	a3,37
   13030:	78e6e6e3          	bltu	a3,a4,13fbc <_vfprintf_r+0x15d8>
   13034:	000236b7          	lui	a3,0x23
   13038:	00271713          	slli	a4,a4,0x2
   1303c:	b5468693          	addi	a3,a3,-1196 # 22b54 <_luts.0+0x4a8>
   13040:	00d70733          	add	a4,a4,a3
   13044:	00072703          	lw	a4,0(a4) # 80000000 <__BSS_END__+0x7ffdb3e4>
   13048:	00070067          	jr	a4
   1304c:	0c410613          	addi	a2,sp,196
   13050:	00048593          	mv	a1,s1
   13054:	000b8513          	mv	a0,s7
   13058:	05112623          	sw	a7,76(sp)
   1305c:	05f12423          	sw	t6,72(sp)
   13060:	02512a23          	sw	t0,52(sp)
   13064:	2fc020ef          	jal	15360 <__sprint_r>
   13068:	020510e3          	bnez	a0,13888 <_vfprintf_r+0xea4>
   1306c:	0cc12603          	lw	a2,204(sp)
   13070:	04c12883          	lw	a7,76(sp)
   13074:	04812f83          	lw	t6,72(sp)
   13078:	03412283          	lw	t0,52(sp)
   1307c:	00098413          	mv	s0,s3
   13080:	be9ff06f          	j	12c68 <_vfprintf_r+0x284>
   13084:	0c812a03          	lw	s4,200(sp)
   13088:	01812783          	lw	a5,24(sp)
   1308c:	00100713          	li	a4,1
   13090:	01a42023          	sw	s10,0(s0)
   13094:	00160613          	addi	a2,a2,1
   13098:	001a0a13          	addi	s4,s4,1
   1309c:	00840b13          	addi	s6,s0,8
   130a0:	34f752e3          	bge	a4,a5,13be4 <_vfprintf_r+0x1200>
   130a4:	00100713          	li	a4,1
   130a8:	00e42223          	sw	a4,4(s0)
   130ac:	0cc12623          	sw	a2,204(sp)
   130b0:	0d412423          	sw	s4,200(sp)
   130b4:	00700713          	li	a4,7
   130b8:	01475463          	bge	a4,s4,130c0 <_vfprintf_r+0x6dc>
   130bc:	0fc0106f          	j	141b8 <_vfprintf_r+0x17d4>
   130c0:	02812783          	lw	a5,40(sp)
   130c4:	02c12703          	lw	a4,44(sp)
   130c8:	001a0a13          	addi	s4,s4,1
   130cc:	00f60633          	add	a2,a2,a5
   130d0:	00eb2023          	sw	a4,0(s6)
   130d4:	00fb2223          	sw	a5,4(s6)
   130d8:	0cc12623          	sw	a2,204(sp)
   130dc:	0d412423          	sw	s4,200(sp)
   130e0:	00700713          	li	a4,7
   130e4:	008b0b13          	addi	s6,s6,8
   130e8:	01475463          	bge	a4,s4,130f0 <_vfprintf_r+0x70c>
   130ec:	0f00106f          	j	141dc <_vfprintf_r+0x17f8>
   130f0:	0d012703          	lw	a4,208(sp)
   130f4:	01812783          	lw	a5,24(sp)
   130f8:	08010593          	addi	a1,sp,128
   130fc:	08e12823          	sw	a4,144(sp)
   13100:	0d412703          	lw	a4,212(sp)
   13104:	09010513          	addi	a0,sp,144
   13108:	00c12a23          	sw	a2,20(sp)
   1310c:	08e12a23          	sw	a4,148(sp)
   13110:	0d812703          	lw	a4,216(sp)
   13114:	08012023          	sw	zero,128(sp)
   13118:	08012223          	sw	zero,132(sp)
   1311c:	08e12c23          	sw	a4,152(sp)
   13120:	0dc12703          	lw	a4,220(sp)
   13124:	08012423          	sw	zero,136(sp)
   13128:	08012623          	sw	zero,140(sp)
   1312c:	08e12e23          	sw	a4,156(sp)
   13130:	fff78413          	addi	s0,a5,-1
   13134:	31c0c0ef          	jal	1f450 <__eqtf2>
   13138:	01412603          	lw	a2,20(sp)
   1313c:	2e0504e3          	beqz	a0,13c24 <_vfprintf_r+0x1240>
   13140:	001d0793          	addi	a5,s10,1
   13144:	001a0a13          	addi	s4,s4,1
   13148:	00860633          	add	a2,a2,s0
   1314c:	00fb2023          	sw	a5,0(s6)
   13150:	008b2223          	sw	s0,4(s6)
   13154:	0cc12623          	sw	a2,204(sp)
   13158:	0d412423          	sw	s4,200(sp)
   1315c:	00700793          	li	a5,7
   13160:	008b0b13          	addi	s6,s6,8
   13164:	2947cee3          	blt	a5,s4,13c00 <_vfprintf_r+0x121c>
   13168:	03c12683          	lw	a3,60(sp)
   1316c:	0b410713          	addi	a4,sp,180
   13170:	001a0793          	addi	a5,s4,1
   13174:	00c68633          	add	a2,a3,a2
   13178:	00eb2023          	sw	a4,0(s6)
   1317c:	00db2223          	sw	a3,4(s6)
   13180:	0cc12623          	sw	a2,204(sp)
   13184:	0cf12423          	sw	a5,200(sp)
   13188:	00700713          	li	a4,7
   1318c:	008b0413          	addi	s0,s6,8
   13190:	b4f756e3          	bge	a4,a5,12cdc <_vfprintf_r+0x2f8>
   13194:	0c410613          	addi	a2,sp,196
   13198:	00048593          	mv	a1,s1
   1319c:	000b8513          	mv	a0,s7
   131a0:	1c0020ef          	jal	15360 <__sprint_r>
   131a4:	6e051263          	bnez	a0,13888 <_vfprintf_r+0xea4>
   131a8:	0cc12603          	lw	a2,204(sp)
   131ac:	00098413          	mv	s0,s3
   131b0:	b2dff06f          	j	12cdc <_vfprintf_r+0x2f8>
   131b4:	00c12683          	lw	a3,12(sp)
   131b8:	010df793          	andi	a5,s11,16
   131bc:	0006a703          	lw	a4,0(a3)
   131c0:	00468693          	addi	a3,a3,4
   131c4:	00d12623          	sw	a3,12(sp)
   131c8:	360796e3          	bnez	a5,13d34 <_vfprintf_r+0x1350>
   131cc:	040df793          	andi	a5,s11,64
   131d0:	34078ee3          	beqz	a5,13d2c <_vfprintf_r+0x1348>
   131d4:	01071b13          	slli	s6,a4,0x10
   131d8:	410b5b13          	srai	s6,s6,0x10
   131dc:	41fb5813          	srai	a6,s6,0x1f
   131e0:	00080793          	mv	a5,a6
   131e4:	c607d6e3          	bgez	a5,12e50 <_vfprintf_r+0x46c>
   131e8:	02d00693          	li	a3,45
   131ec:	016037b3          	snez	a5,s6
   131f0:	41000833          	neg	a6,a6
   131f4:	0ad103a3          	sb	a3,167(sp)
   131f8:	40f80833          	sub	a6,a6,a5
   131fc:	41600b33          	neg	s6,s6
   13200:	000d8613          	mv	a2,s11
   13204:	00100793          	li	a5,1
   13208:	cc0a5ae3          	bgez	s4,12edc <_vfprintf_r+0x4f8>
   1320c:	00100693          	li	a3,1
   13210:	14d78063          	beq	a5,a3,13350 <_vfprintf_r+0x96c>
   13214:	00200693          	li	a3,2
   13218:	44d78063          	beq	a5,a3,13658 <_vfprintf_r+0xc74>
   1321c:	19010d13          	addi	s10,sp,400
   13220:	01d81793          	slli	a5,a6,0x1d
   13224:	007b7693          	andi	a3,s6,7
   13228:	003b5b13          	srli	s6,s6,0x3
   1322c:	03068693          	addi	a3,a3,48
   13230:	0167eb33          	or	s6,a5,s6
   13234:	00385813          	srli	a6,a6,0x3
   13238:	fedd0fa3          	sb	a3,-1(s10)
   1323c:	010b67b3          	or	a5,s6,a6
   13240:	000d0513          	mv	a0,s10
   13244:	fffd0d13          	addi	s10,s10,-1
   13248:	fc079ce3          	bnez	a5,13220 <_vfprintf_r+0x83c>
   1324c:	00167713          	andi	a4,a2,1
   13250:	42070e63          	beqz	a4,1368c <_vfprintf_r+0xca8>
   13254:	03000713          	li	a4,48
   13258:	42e68a63          	beq	a3,a4,1368c <_vfprintf_r+0xca8>
   1325c:	ffe50513          	addi	a0,a0,-2
   13260:	19010793          	addi	a5,sp,400
   13264:	feed0fa3          	sb	a4,-1(s10)
   13268:	40a78b33          	sub	s6,a5,a0
   1326c:	00060d93          	mv	s11,a2
   13270:	00050d13          	mv	s10,a0
   13274:	c01ff06f          	j	12e74 <_vfprintf_r+0x490>
   13278:	00c12683          	lw	a3,12(sp)
   1327c:	010df793          	andi	a5,s11,16
   13280:	0006a703          	lw	a4,0(a3)
   13284:	00468693          	addi	a3,a3,4
   13288:	00d12623          	sw	a3,12(sp)
   1328c:	28079ae3          	bnez	a5,13d20 <_vfprintf_r+0x133c>
   13290:	040df793          	andi	a5,s11,64
   13294:	280782e3          	beqz	a5,13d18 <_vfprintf_r+0x1334>
   13298:	01071b13          	slli	s6,a4,0x10
   1329c:	010b5b13          	srli	s6,s6,0x10
   132a0:	00000813          	li	a6,0
   132a4:	c25ff06f          	j	12ec8 <_vfprintf_r+0x4e4>
   132a8:	00c12703          	lw	a4,12(sp)
   132ac:	0a0103a3          	sb	zero,167(sp)
   132b0:	00100c13          	li	s8,1
   132b4:	00072783          	lw	a5,0(a4)
   132b8:	00470713          	addi	a4,a4,4
   132bc:	00e12623          	sw	a4,12(sp)
   132c0:	12f10623          	sb	a5,300(sp)
   132c4:	00100b13          	li	s6,1
   132c8:	12c10d13          	addi	s10,sp,300
   132cc:	931ff06f          	j	12bfc <_vfprintf_r+0x218>
   132d0:	00c12783          	lw	a5,12(sp)
   132d4:	0a0103a3          	sb	zero,167(sp)
   132d8:	0007ad03          	lw	s10,0(a5)
   132dc:	00478813          	addi	a6,a5,4
   132e0:	3a0d02e3          	beqz	s10,13e84 <_vfprintf_r+0x14a0>
   132e4:	000a5463          	bgez	s4,132ec <_vfprintf_r+0x908>
   132e8:	1c80106f          	j	144b0 <_vfprintf_r+0x1acc>
   132ec:	000a0613          	mv	a2,s4
   132f0:	00000593          	li	a1,0
   132f4:	000d0513          	mv	a0,s10
   132f8:	01012a23          	sw	a6,20(sp)
   132fc:	01112623          	sw	a7,12(sp)
   13300:	5ed020ef          	jal	160ec <memchr>
   13304:	00a12423          	sw	a0,8(sp)
   13308:	00c12883          	lw	a7,12(sp)
   1330c:	01412803          	lw	a6,20(sp)
   13310:	00051463          	bnez	a0,13318 <_vfprintf_r+0x934>
   13314:	3590106f          	j	14e6c <_vfprintf_r+0x2488>
   13318:	00812783          	lw	a5,8(sp)
   1331c:	0a714703          	lbu	a4,167(sp)
   13320:	01012623          	sw	a6,12(sp)
   13324:	41a78b33          	sub	s6,a5,s10
   13328:	fffb4693          	not	a3,s6
   1332c:	41f6d693          	srai	a3,a3,0x1f
   13330:	00012423          	sw	zero,8(sp)
   13334:	02012023          	sw	zero,32(sp)
   13338:	00012e23          	sw	zero,28(sp)
   1333c:	00012a23          	sw	zero,20(sp)
   13340:	00db7c33          	and	s8,s6,a3
   13344:	00000a13          	li	s4,0
   13348:	b40718e3          	bnez	a4,12e98 <_vfprintf_r+0x4b4>
   1334c:	8c5ff06f          	j	12c10 <_vfprintf_r+0x22c>
   13350:	6c0812e3          	bnez	a6,14214 <_vfprintf_r+0x1830>
   13354:	00900793          	li	a5,9
   13358:	6b67eee3          	bltu	a5,s6,14214 <_vfprintf_r+0x1830>
   1335c:	030b0713          	addi	a4,s6,48
   13360:	18e107a3          	sb	a4,399(sp)
   13364:	00060d93          	mv	s11,a2
   13368:	00100b13          	li	s6,1
   1336c:	18f10d13          	addi	s10,sp,399
   13370:	b05ff06f          	j	12e74 <_vfprintf_r+0x490>
   13374:	00c12783          	lw	a5,12(sp)
   13378:	0007ac83          	lw	s9,0(a5)
   1337c:	00478793          	addi	a5,a5,4
   13380:	160cdae3          	bgez	s9,13cf4 <_vfprintf_r+0x1310>
   13384:	41900cb3          	neg	s9,s9
   13388:	00f12623          	sw	a5,12(sp)
   1338c:	00094883          	lbu	a7,0(s2)
   13390:	004ded93          	ori	s11,s11,4
   13394:	ffcff06f          	j	12b90 <_vfprintf_r+0x1ac>
   13398:	02b00793          	li	a5,43
   1339c:	00094883          	lbu	a7,0(s2)
   133a0:	0af103a3          	sb	a5,167(sp)
   133a4:	fecff06f          	j	12b90 <_vfprintf_r+0x1ac>
   133a8:	00094883          	lbu	a7,0(s2)
   133ac:	080ded93          	ori	s11,s11,128
   133b0:	fe0ff06f          	j	12b90 <_vfprintf_r+0x1ac>
   133b4:	00094883          	lbu	a7,0(s2)
   133b8:	02a00793          	li	a5,42
   133bc:	00190693          	addi	a3,s2,1
   133c0:	00f89463          	bne	a7,a5,133c8 <_vfprintf_r+0x9e4>
   133c4:	66d0106f          	j	15230 <_vfprintf_r+0x284c>
   133c8:	fd088793          	addi	a5,a7,-48
   133cc:	00900713          	li	a4,9
   133d0:	00000a13          	li	s4,0
   133d4:	00900613          	li	a2,9
   133d8:	02f76463          	bltu	a4,a5,13400 <_vfprintf_r+0xa1c>
   133dc:	0006c883          	lbu	a7,0(a3)
   133e0:	002a1713          	slli	a4,s4,0x2
   133e4:	01470a33          	add	s4,a4,s4
   133e8:	001a1a13          	slli	s4,s4,0x1
   133ec:	00fa0a33          	add	s4,s4,a5
   133f0:	fd088793          	addi	a5,a7,-48
   133f4:	00168693          	addi	a3,a3,1
   133f8:	fef672e3          	bgeu	a2,a5,133dc <_vfprintf_r+0x9f8>
   133fc:	1c0a44e3          	bltz	s4,13dc4 <_vfprintf_r+0x13e0>
   13400:	00068913          	mv	s2,a3
   13404:	f90ff06f          	j	12b94 <_vfprintf_r+0x1b0>
   13408:	00094883          	lbu	a7,0(s2)
   1340c:	001ded93          	ori	s11,s11,1
   13410:	f80ff06f          	j	12b90 <_vfprintf_r+0x1ac>
   13414:	0a714783          	lbu	a5,167(sp)
   13418:	00094883          	lbu	a7,0(s2)
   1341c:	f6079a63          	bnez	a5,12b90 <_vfprintf_r+0x1ac>
   13420:	02000793          	li	a5,32
   13424:	0af103a3          	sb	a5,167(sp)
   13428:	f68ff06f          	j	12b90 <_vfprintf_r+0x1ac>
   1342c:	010de613          	ori	a2,s11,16
   13430:	02067793          	andi	a5,a2,32
   13434:	060788e3          	beqz	a5,13ca4 <_vfprintf_r+0x12c0>
   13438:	00c12783          	lw	a5,12(sp)
   1343c:	00778c13          	addi	s8,a5,7
   13440:	ff8c7c13          	andi	s8,s8,-8
   13444:	008c0793          	addi	a5,s8,8
   13448:	00f12623          	sw	a5,12(sp)
   1344c:	000c2b03          	lw	s6,0(s8)
   13450:	004c2803          	lw	a6,4(s8)
   13454:	00100793          	li	a5,1
   13458:	a79ff06f          	j	12ed0 <_vfprintf_r+0x4ec>
   1345c:	00094883          	lbu	a7,0(s2)
   13460:	008ded93          	ori	s11,s11,8
   13464:	f2cff06f          	j	12b90 <_vfprintf_r+0x1ac>
   13468:	00c12703          	lw	a4,12(sp)
   1346c:	000087b7          	lui	a5,0x8
   13470:	83078793          	addi	a5,a5,-2000 # 7830 <exit-0x8864>
   13474:	0af11423          	sh	a5,168(sp)
   13478:	00470793          	addi	a5,a4,4
   1347c:	00f12623          	sw	a5,12(sp)
   13480:	000237b7          	lui	a5,0x23
   13484:	8c078793          	addi	a5,a5,-1856 # 228c0 <_luts.0+0x214>
   13488:	02f12823          	sw	a5,48(sp)
   1348c:	00072b03          	lw	s6,0(a4)
   13490:	00000813          	li	a6,0
   13494:	002de613          	ori	a2,s11,2
   13498:	00200793          	li	a5,2
   1349c:	07800893          	li	a7,120
   134a0:	a31ff06f          	j	12ed0 <_vfprintf_r+0x4ec>
   134a4:	020df793          	andi	a5,s11,32
   134a8:	0c0780e3          	beqz	a5,13d68 <_vfprintf_r+0x1384>
   134ac:	00c12783          	lw	a5,12(sp)
   134b0:	00412683          	lw	a3,4(sp)
   134b4:	0007a783          	lw	a5,0(a5)
   134b8:	41f6d713          	srai	a4,a3,0x1f
   134bc:	00d7a023          	sw	a3,0(a5)
   134c0:	00e7a223          	sw	a4,4(a5)
   134c4:	00c12783          	lw	a5,12(sp)
   134c8:	00090d13          	mv	s10,s2
   134cc:	00478793          	addi	a5,a5,4
   134d0:	00f12623          	sw	a5,12(sp)
   134d4:	855ff06f          	j	12d28 <_vfprintf_r+0x344>
   134d8:	00094883          	lbu	a7,0(s2)
   134dc:	06c00793          	li	a5,108
   134e0:	16f88ae3          	beq	a7,a5,13e54 <_vfprintf_r+0x1470>
   134e4:	010ded93          	ori	s11,s11,16
   134e8:	ea8ff06f          	j	12b90 <_vfprintf_r+0x1ac>
   134ec:	00094883          	lbu	a7,0(s2)
   134f0:	06800793          	li	a5,104
   134f4:	14f888e3          	beq	a7,a5,13e44 <_vfprintf_r+0x1460>
   134f8:	040ded93          	ori	s11,s11,64
   134fc:	e94ff06f          	j	12b90 <_vfprintf_r+0x1ac>
   13500:	06500713          	li	a4,101
   13504:	b91750e3          	bge	a4,a7,13084 <_vfprintf_r+0x6a0>
   13508:	0d012703          	lw	a4,208(sp)
   1350c:	08010593          	addi	a1,sp,128
   13510:	09010513          	addi	a0,sp,144
   13514:	08e12823          	sw	a4,144(sp)
   13518:	0d412703          	lw	a4,212(sp)
   1351c:	02c12a23          	sw	a2,52(sp)
   13520:	08012023          	sw	zero,128(sp)
   13524:	08e12a23          	sw	a4,148(sp)
   13528:	0d812703          	lw	a4,216(sp)
   1352c:	08012223          	sw	zero,132(sp)
   13530:	08012423          	sw	zero,136(sp)
   13534:	08e12c23          	sw	a4,152(sp)
   13538:	0dc12703          	lw	a4,220(sp)
   1353c:	08012623          	sw	zero,140(sp)
   13540:	08e12e23          	sw	a4,156(sp)
   13544:	70d0b0ef          	jal	1f450 <__eqtf2>
   13548:	03412603          	lw	a2,52(sp)
   1354c:	54051463          	bnez	a0,13a94 <_vfprintf_r+0x10b0>
   13550:	0c812783          	lw	a5,200(sp)
   13554:	00023737          	lui	a4,0x23
   13558:	8f070713          	addi	a4,a4,-1808 # 228f0 <_luts.0+0x244>
   1355c:	00e42023          	sw	a4,0(s0)
   13560:	00160613          	addi	a2,a2,1
   13564:	00100713          	li	a4,1
   13568:	00178793          	addi	a5,a5,1
   1356c:	00e42223          	sw	a4,4(s0)
   13570:	0cc12623          	sw	a2,204(sp)
   13574:	0cf12423          	sw	a5,200(sp)
   13578:	00700713          	li	a4,7
   1357c:	00840413          	addi	s0,s0,8
   13580:	5ef744e3          	blt	a4,a5,14368 <_vfprintf_r+0x1984>
   13584:	0ac12783          	lw	a5,172(sp)
   13588:	01812703          	lw	a4,24(sp)
   1358c:	74e7dc63          	bge	a5,a4,13ce4 <_vfprintf_r+0x1300>
   13590:	02c12783          	lw	a5,44(sp)
   13594:	02812703          	lw	a4,40(sp)
   13598:	00840413          	addi	s0,s0,8
   1359c:	fef42c23          	sw	a5,-8(s0)
   135a0:	0c812783          	lw	a5,200(sp)
   135a4:	00e60633          	add	a2,a2,a4
   135a8:	fee42e23          	sw	a4,-4(s0)
   135ac:	00178793          	addi	a5,a5,1
   135b0:	0cc12623          	sw	a2,204(sp)
   135b4:	0cf12423          	sw	a5,200(sp)
   135b8:	00700713          	li	a4,7
   135bc:	0af744e3          	blt	a4,a5,13e64 <_vfprintf_r+0x1480>
   135c0:	01812783          	lw	a5,24(sp)
   135c4:	fff78a13          	addi	s4,a5,-1
   135c8:	f1405a63          	blez	s4,12cdc <_vfprintf_r+0x2f8>
   135cc:	00023837          	lui	a6,0x23
   135d0:	01000713          	li	a4,16
   135d4:	0c812783          	lw	a5,200(sp)
   135d8:	bec80813          	addi	a6,a6,-1044 # 22bec <zeroes.0>
   135dc:	5b475ae3          	bge	a4,s4,14390 <_vfprintf_r+0x19ac>
   135e0:	01212a23          	sw	s2,20(sp)
   135e4:	01000b13          	li	s6,16
   135e8:	00700d13          	li	s10,7
   135ec:	00080913          	mv	s2,a6
   135f0:	00c0006f          	j	135fc <_vfprintf_r+0xc18>
   135f4:	ff0a0a13          	addi	s4,s4,-16
   135f8:	594b58e3          	bge	s6,s4,14388 <_vfprintf_r+0x19a4>
   135fc:	01060613          	addi	a2,a2,16
   13600:	00178793          	addi	a5,a5,1
   13604:	01242023          	sw	s2,0(s0)
   13608:	01642223          	sw	s6,4(s0)
   1360c:	0cc12623          	sw	a2,204(sp)
   13610:	0cf12423          	sw	a5,200(sp)
   13614:	00840413          	addi	s0,s0,8
   13618:	fcfd5ee3          	bge	s10,a5,135f4 <_vfprintf_r+0xc10>
   1361c:	0c410613          	addi	a2,sp,196
   13620:	00048593          	mv	a1,s1
   13624:	000b8513          	mv	a0,s7
   13628:	539010ef          	jal	15360 <__sprint_r>
   1362c:	24051e63          	bnez	a0,13888 <_vfprintf_r+0xea4>
   13630:	0cc12603          	lw	a2,204(sp)
   13634:	0c812783          	lw	a5,200(sp)
   13638:	00098413          	mv	s0,s3
   1363c:	fb9ff06f          	j	135f4 <_vfprintf_r+0xc10>
   13640:	00100693          	li	a3,1
   13644:	00d79463          	bne	a5,a3,1364c <_vfprintf_r+0xc68>
   13648:	1850106f          	j	14fcc <_vfprintf_r+0x25e8>
   1364c:	00200693          	li	a3,2
   13650:	000d8613          	mv	a2,s11
   13654:	bcd794e3          	bne	a5,a3,1321c <_vfprintf_r+0x838>
   13658:	03012683          	lw	a3,48(sp)
   1365c:	19010d13          	addi	s10,sp,400
   13660:	00fb7793          	andi	a5,s6,15
   13664:	00f687b3          	add	a5,a3,a5
   13668:	0007c703          	lbu	a4,0(a5)
   1366c:	004b5b13          	srli	s6,s6,0x4
   13670:	01c81793          	slli	a5,a6,0x1c
   13674:	0167eb33          	or	s6,a5,s6
   13678:	00485813          	srli	a6,a6,0x4
   1367c:	feed0fa3          	sb	a4,-1(s10)
   13680:	010b67b3          	or	a5,s6,a6
   13684:	fffd0d13          	addi	s10,s10,-1
   13688:	fc079ce3          	bnez	a5,13660 <_vfprintf_r+0xc7c>
   1368c:	19010793          	addi	a5,sp,400
   13690:	41a78b33          	sub	s6,a5,s10
   13694:	00060d93          	mv	s11,a2
   13698:	fdcff06f          	j	12e74 <_vfprintf_r+0x490>
   1369c:	418c8733          	sub	a4,s9,s8
   136a0:	e0e05263          	blez	a4,12ca4 <_vfprintf_r+0x2c0>
   136a4:	00023837          	lui	a6,0x23
   136a8:	01000513          	li	a0,16
   136ac:	0c812583          	lw	a1,200(sp)
   136b0:	bec80813          	addi	a6,a6,-1044 # 22bec <zeroes.0>
   136b4:	08e55863          	bge	a0,a4,13744 <_vfprintf_r+0xd60>
   136b8:	03212a23          	sw	s2,52(sp)
   136bc:	00040793          	mv	a5,s0
   136c0:	01000e93          	li	t4,16
   136c4:	00700f93          	li	t6,7
   136c8:	05112423          	sw	a7,72(sp)
   136cc:	00070413          	mv	s0,a4
   136d0:	00080913          	mv	s2,a6
   136d4:	00c0006f          	j	136e0 <_vfprintf_r+0xcfc>
   136d8:	ff040413          	addi	s0,s0,-16
   136dc:	048eda63          	bge	t4,s0,13730 <_vfprintf_r+0xd4c>
   136e0:	01060613          	addi	a2,a2,16
   136e4:	00158593          	addi	a1,a1,1 # 2001 <exit-0xe093>
   136e8:	0127a023          	sw	s2,0(a5)
   136ec:	01d7a223          	sw	t4,4(a5)
   136f0:	0cc12623          	sw	a2,204(sp)
   136f4:	0cb12423          	sw	a1,200(sp)
   136f8:	00878793          	addi	a5,a5,8
   136fc:	fcbfdee3          	bge	t6,a1,136d8 <_vfprintf_r+0xcf4>
   13700:	0c410613          	addi	a2,sp,196
   13704:	00048593          	mv	a1,s1
   13708:	000b8513          	mv	a0,s7
   1370c:	455010ef          	jal	15360 <__sprint_r>
   13710:	16051c63          	bnez	a0,13888 <_vfprintf_r+0xea4>
   13714:	01000e93          	li	t4,16
   13718:	ff040413          	addi	s0,s0,-16
   1371c:	0cc12603          	lw	a2,204(sp)
   13720:	0c812583          	lw	a1,200(sp)
   13724:	00098793          	mv	a5,s3
   13728:	00700f93          	li	t6,7
   1372c:	fa8ecae3          	blt	t4,s0,136e0 <_vfprintf_r+0xcfc>
   13730:	00090813          	mv	a6,s2
   13734:	04812883          	lw	a7,72(sp)
   13738:	03412903          	lw	s2,52(sp)
   1373c:	00040713          	mv	a4,s0
   13740:	00078413          	mv	s0,a5
   13744:	00e60633          	add	a2,a2,a4
   13748:	00158593          	addi	a1,a1,1
   1374c:	00e42223          	sw	a4,4(s0)
   13750:	01042023          	sw	a6,0(s0)
   13754:	0cc12623          	sw	a2,204(sp)
   13758:	0cb12423          	sw	a1,200(sp)
   1375c:	00700713          	li	a4,7
   13760:	00840413          	addi	s0,s0,8
   13764:	d4b75063          	bge	a4,a1,12ca4 <_vfprintf_r+0x2c0>
   13768:	0c410613          	addi	a2,sp,196
   1376c:	00048593          	mv	a1,s1
   13770:	000b8513          	mv	a0,s7
   13774:	03112a23          	sw	a7,52(sp)
   13778:	3e9010ef          	jal	15360 <__sprint_r>
   1377c:	10051663          	bnez	a0,13888 <_vfprintf_r+0xea4>
   13780:	0cc12603          	lw	a2,204(sp)
   13784:	03412883          	lw	a7,52(sp)
   13788:	00098413          	mv	s0,s3
   1378c:	d18ff06f          	j	12ca4 <_vfprintf_r+0x2c0>
   13790:	00023837          	lui	a6,0x23
   13794:	01000713          	li	a4,16
   13798:	0c812583          	lw	a1,200(sp)
   1379c:	bec80813          	addi	a6,a6,-1044 # 22bec <zeroes.0>
   137a0:	09475463          	bge	a4,s4,13828 <_vfprintf_r+0xe44>
   137a4:	00040793          	mv	a5,s0
   137a8:	01000713          	li	a4,16
   137ac:	000a0413          	mv	s0,s4
   137b0:	00700e93          	li	t4,7
   137b4:	03112a23          	sw	a7,52(sp)
   137b8:	000a8a13          	mv	s4,s5
   137bc:	00c0006f          	j	137c8 <_vfprintf_r+0xde4>
   137c0:	ff040413          	addi	s0,s0,-16
   137c4:	04875a63          	bge	a4,s0,13818 <_vfprintf_r+0xe34>
   137c8:	01060613          	addi	a2,a2,16
   137cc:	00158593          	addi	a1,a1,1
   137d0:	0157a023          	sw	s5,0(a5)
   137d4:	00e7a223          	sw	a4,4(a5)
   137d8:	0cc12623          	sw	a2,204(sp)
   137dc:	0cb12423          	sw	a1,200(sp)
   137e0:	00878793          	addi	a5,a5,8
   137e4:	fcbedee3          	bge	t4,a1,137c0 <_vfprintf_r+0xddc>
   137e8:	0c410613          	addi	a2,sp,196
   137ec:	00048593          	mv	a1,s1
   137f0:	000b8513          	mv	a0,s7
   137f4:	36d010ef          	jal	15360 <__sprint_r>
   137f8:	08051863          	bnez	a0,13888 <_vfprintf_r+0xea4>
   137fc:	01000713          	li	a4,16
   13800:	ff040413          	addi	s0,s0,-16
   13804:	0cc12603          	lw	a2,204(sp)
   13808:	0c812583          	lw	a1,200(sp)
   1380c:	00098793          	mv	a5,s3
   13810:	00700e93          	li	t4,7
   13814:	fa874ae3          	blt	a4,s0,137c8 <_vfprintf_r+0xde4>
   13818:	03412883          	lw	a7,52(sp)
   1381c:	000a0813          	mv	a6,s4
   13820:	00040a13          	mv	s4,s0
   13824:	00078413          	mv	s0,a5
   13828:	01460633          	add	a2,a2,s4
   1382c:	00158593          	addi	a1,a1,1
   13830:	01042023          	sw	a6,0(s0)
   13834:	01442223          	sw	s4,4(s0)
   13838:	0cc12623          	sw	a2,204(sp)
   1383c:	0cb12423          	sw	a1,200(sp)
   13840:	00700713          	li	a4,7
   13844:	00840413          	addi	s0,s0,8
   13848:	c6b75263          	bge	a4,a1,12cac <_vfprintf_r+0x2c8>
   1384c:	0c410613          	addi	a2,sp,196
   13850:	00048593          	mv	a1,s1
   13854:	000b8513          	mv	a0,s7
   13858:	03112a23          	sw	a7,52(sp)
   1385c:	305010ef          	jal	15360 <__sprint_r>
   13860:	02051463          	bnez	a0,13888 <_vfprintf_r+0xea4>
   13864:	0cc12603          	lw	a2,204(sp)
   13868:	03412883          	lw	a7,52(sp)
   1386c:	00098413          	mv	s0,s3
   13870:	c3cff06f          	j	12cac <_vfprintf_r+0x2c8>
   13874:	0c410613          	addi	a2,sp,196
   13878:	00048593          	mv	a1,s1
   1387c:	000b8513          	mv	a0,s7
   13880:	2e1010ef          	jal	15360 <__sprint_r>
   13884:	c8050263          	beqz	a0,12d08 <_vfprintf_r+0x324>
   13888:	00812583          	lw	a1,8(sp)
   1388c:	ca058863          	beqz	a1,12d3c <_vfprintf_r+0x358>
   13890:	02412503          	lw	a0,36(sp)
   13894:	e88fe0ef          	jal	11f1c <_free_r>
   13898:	ca4ff06f          	j	12d3c <_vfprintf_r+0x358>
   1389c:	000d8613          	mv	a2,s11
   138a0:	96dff06f          	j	1320c <_vfprintf_r+0x828>
   138a4:	00023837          	lui	a6,0x23
   138a8:	01000513          	li	a0,16
   138ac:	0c812583          	lw	a1,200(sp)
   138b0:	bfc80813          	addi	a6,a6,-1028 # 22bfc <blanks.1>
   138b4:	0ae55063          	bge	a0,a4,13954 <_vfprintf_r+0xf70>
   138b8:	05212623          	sw	s2,76(sp)
   138bc:	00040793          	mv	a5,s0
   138c0:	01000e93          	li	t4,16
   138c4:	00700393          	li	t2,7
   138c8:	02512a23          	sw	t0,52(sp)
   138cc:	05f12423          	sw	t6,72(sp)
   138d0:	05112823          	sw	a7,80(sp)
   138d4:	00070413          	mv	s0,a4
   138d8:	00080913          	mv	s2,a6
   138dc:	00c0006f          	j	138e8 <_vfprintf_r+0xf04>
   138e0:	ff040413          	addi	s0,s0,-16
   138e4:	048eda63          	bge	t4,s0,13938 <_vfprintf_r+0xf54>
   138e8:	01060613          	addi	a2,a2,16
   138ec:	00158593          	addi	a1,a1,1
   138f0:	0127a023          	sw	s2,0(a5)
   138f4:	01d7a223          	sw	t4,4(a5)
   138f8:	0cc12623          	sw	a2,204(sp)
   138fc:	0cb12423          	sw	a1,200(sp)
   13900:	00878793          	addi	a5,a5,8
   13904:	fcb3dee3          	bge	t2,a1,138e0 <_vfprintf_r+0xefc>
   13908:	0c410613          	addi	a2,sp,196
   1390c:	00048593          	mv	a1,s1
   13910:	000b8513          	mv	a0,s7
   13914:	24d010ef          	jal	15360 <__sprint_r>
   13918:	f60518e3          	bnez	a0,13888 <_vfprintf_r+0xea4>
   1391c:	01000e93          	li	t4,16
   13920:	ff040413          	addi	s0,s0,-16
   13924:	0cc12603          	lw	a2,204(sp)
   13928:	0c812583          	lw	a1,200(sp)
   1392c:	00098793          	mv	a5,s3
   13930:	00700393          	li	t2,7
   13934:	fa8ecae3          	blt	t4,s0,138e8 <_vfprintf_r+0xf04>
   13938:	00090813          	mv	a6,s2
   1393c:	03412283          	lw	t0,52(sp)
   13940:	04812f83          	lw	t6,72(sp)
   13944:	05012883          	lw	a7,80(sp)
   13948:	04c12903          	lw	s2,76(sp)
   1394c:	00040713          	mv	a4,s0
   13950:	00078413          	mv	s0,a5
   13954:	00e60633          	add	a2,a2,a4
   13958:	00158593          	addi	a1,a1,1
   1395c:	00e42223          	sw	a4,4(s0)
   13960:	01042023          	sw	a6,0(s0)
   13964:	0cc12623          	sw	a2,204(sp)
   13968:	0cb12423          	sw	a1,200(sp)
   1396c:	00700713          	li	a4,7
   13970:	00840413          	addi	s0,s0,8
   13974:	aab75e63          	bge	a4,a1,12c30 <_vfprintf_r+0x24c>
   13978:	0c410613          	addi	a2,sp,196
   1397c:	00048593          	mv	a1,s1
   13980:	000b8513          	mv	a0,s7
   13984:	05112623          	sw	a7,76(sp)
   13988:	05f12423          	sw	t6,72(sp)
   1398c:	02512a23          	sw	t0,52(sp)
   13990:	1d1010ef          	jal	15360 <__sprint_r>
   13994:	ee051ae3          	bnez	a0,13888 <_vfprintf_r+0xea4>
   13998:	0cc12603          	lw	a2,204(sp)
   1399c:	04c12883          	lw	a7,76(sp)
   139a0:	04812f83          	lw	t6,72(sp)
   139a4:	03412283          	lw	t0,52(sp)
   139a8:	00098413          	mv	s0,s3
   139ac:	a84ff06f          	j	12c30 <_vfprintf_r+0x24c>
   139b0:	0c410613          	addi	a2,sp,196
   139b4:	00048593          	mv	a1,s1
   139b8:	000b8513          	mv	a0,s7
   139bc:	05112423          	sw	a7,72(sp)
   139c0:	03f12a23          	sw	t6,52(sp)
   139c4:	19d010ef          	jal	15360 <__sprint_r>
   139c8:	ec0510e3          	bnez	a0,13888 <_vfprintf_r+0xea4>
   139cc:	0cc12603          	lw	a2,204(sp)
   139d0:	04812883          	lw	a7,72(sp)
   139d4:	03412f83          	lw	t6,52(sp)
   139d8:	00098413          	mv	s0,s3
   139dc:	ac0ff06f          	j	12c9c <_vfprintf_r+0x2b8>
   139e0:	00023837          	lui	a6,0x23
   139e4:	bfc80813          	addi	a6,a6,-1028 # 22bfc <blanks.1>
   139e8:	01000713          	li	a4,16
   139ec:	0c812783          	lw	a5,200(sp)
   139f0:	01000b13          	li	s6,16
   139f4:	00700d13          	li	s10,7
   139f8:	00080d93          	mv	s11,a6
   139fc:	01474863          	blt	a4,s4,13a0c <_vfprintf_r+0x1028>
   13a00:	0580006f          	j	13a58 <_vfprintf_r+0x1074>
   13a04:	ff0a0a13          	addi	s4,s4,-16
   13a08:	054b5663          	bge	s6,s4,13a54 <_vfprintf_r+0x1070>
   13a0c:	01060613          	addi	a2,a2,16
   13a10:	00178793          	addi	a5,a5,1
   13a14:	01b42023          	sw	s11,0(s0)
   13a18:	01642223          	sw	s6,4(s0)
   13a1c:	0cc12623          	sw	a2,204(sp)
   13a20:	0cf12423          	sw	a5,200(sp)
   13a24:	00840413          	addi	s0,s0,8
   13a28:	fcfd5ee3          	bge	s10,a5,13a04 <_vfprintf_r+0x1020>
   13a2c:	0c410613          	addi	a2,sp,196
   13a30:	00048593          	mv	a1,s1
   13a34:	000b8513          	mv	a0,s7
   13a38:	129010ef          	jal	15360 <__sprint_r>
   13a3c:	e40516e3          	bnez	a0,13888 <_vfprintf_r+0xea4>
   13a40:	ff0a0a13          	addi	s4,s4,-16
   13a44:	0cc12603          	lw	a2,204(sp)
   13a48:	0c812783          	lw	a5,200(sp)
   13a4c:	00098413          	mv	s0,s3
   13a50:	fb4b4ee3          	blt	s6,s4,13a0c <_vfprintf_r+0x1028>
   13a54:	000d8813          	mv	a6,s11
   13a58:	01460633          	add	a2,a2,s4
   13a5c:	00178793          	addi	a5,a5,1
   13a60:	01042023          	sw	a6,0(s0)
   13a64:	01442223          	sw	s4,4(s0)
   13a68:	0cc12623          	sw	a2,204(sp)
   13a6c:	0cf12423          	sw	a5,200(sp)
   13a70:	00700713          	li	a4,7
   13a74:	a6f75c63          	bge	a4,a5,12cec <_vfprintf_r+0x308>
   13a78:	0c410613          	addi	a2,sp,196
   13a7c:	00048593          	mv	a1,s1
   13a80:	000b8513          	mv	a0,s7
   13a84:	0dd010ef          	jal	15360 <__sprint_r>
   13a88:	e00510e3          	bnez	a0,13888 <_vfprintf_r+0xea4>
   13a8c:	0cc12603          	lw	a2,204(sp)
   13a90:	a5cff06f          	j	12cec <_vfprintf_r+0x308>
   13a94:	0ac12503          	lw	a0,172(sp)
   13a98:	04a052e3          	blez	a0,142dc <_vfprintf_r+0x18f8>
   13a9c:	01412783          	lw	a5,20(sp)
   13aa0:	01812703          	lw	a4,24(sp)
   13aa4:	00078a13          	mv	s4,a5
   13aa8:	30f74863          	blt	a4,a5,13db8 <_vfprintf_r+0x13d4>
   13aac:	03405663          	blez	s4,13ad8 <_vfprintf_r+0x10f4>
   13ab0:	0c812703          	lw	a4,200(sp)
   13ab4:	01460633          	add	a2,a2,s4
   13ab8:	01a42023          	sw	s10,0(s0)
   13abc:	00170713          	addi	a4,a4,1
   13ac0:	01442223          	sw	s4,4(s0)
   13ac4:	0cc12623          	sw	a2,204(sp)
   13ac8:	0ce12423          	sw	a4,200(sp)
   13acc:	00700593          	li	a1,7
   13ad0:	00840413          	addi	s0,s0,8
   13ad4:	56e5c0e3          	blt	a1,a4,14834 <_vfprintf_r+0x1e50>
   13ad8:	fffa4713          	not	a4,s4
   13adc:	01412783          	lw	a5,20(sp)
   13ae0:	41f75713          	srai	a4,a4,0x1f
   13ae4:	00ea7a33          	and	s4,s4,a4
   13ae8:	41478a33          	sub	s4,a5,s4
   13aec:	3b404c63          	bgtz	s4,13ea4 <_vfprintf_r+0x14c0>
   13af0:	01412783          	lw	a5,20(sp)
   13af4:	400df713          	andi	a4,s11,1024
   13af8:	00fd0a33          	add	s4,s10,a5
   13afc:	2c0714e3          	bnez	a4,145c4 <_vfprintf_r+0x1be0>
   13b00:	0ac12583          	lw	a1,172(sp)
   13b04:	01812783          	lw	a5,24(sp)
   13b08:	40f5ca63          	blt	a1,a5,13f1c <_vfprintf_r+0x1538>
   13b0c:	001df713          	andi	a4,s11,1
   13b10:	40071663          	bnez	a4,13f1c <_vfprintf_r+0x1538>
   13b14:	01812703          	lw	a4,24(sp)
   13b18:	00ed07b3          	add	a5,s10,a4
   13b1c:	40b705b3          	sub	a1,a4,a1
   13b20:	41478b33          	sub	s6,a5,s4
   13b24:	0165d463          	bge	a1,s6,13b2c <_vfprintf_r+0x1148>
   13b28:	00058b13          	mv	s6,a1
   13b2c:	03605863          	blez	s6,13b5c <_vfprintf_r+0x1178>
   13b30:	0c812703          	lw	a4,200(sp)
   13b34:	01660633          	add	a2,a2,s6
   13b38:	01442023          	sw	s4,0(s0)
   13b3c:	00170713          	addi	a4,a4,1
   13b40:	01642223          	sw	s6,4(s0)
   13b44:	0cc12623          	sw	a2,204(sp)
   13b48:	0ce12423          	sw	a4,200(sp)
   13b4c:	00700793          	li	a5,7
   13b50:	00840413          	addi	s0,s0,8
   13b54:	00e7d463          	bge	a5,a4,13b5c <_vfprintf_r+0x1178>
   13b58:	3400106f          	j	14e98 <_vfprintf_r+0x24b4>
   13b5c:	fffb4713          	not	a4,s6
   13b60:	41f75713          	srai	a4,a4,0x1f
   13b64:	00eb77b3          	and	a5,s6,a4
   13b68:	40f58a33          	sub	s4,a1,a5
   13b6c:	97405863          	blez	s4,12cdc <_vfprintf_r+0x2f8>
   13b70:	00023837          	lui	a6,0x23
   13b74:	01000713          	li	a4,16
   13b78:	0c812783          	lw	a5,200(sp)
   13b7c:	bec80813          	addi	a6,a6,-1044 # 22bec <zeroes.0>
   13b80:	014758e3          	bge	a4,s4,14390 <_vfprintf_r+0x19ac>
   13b84:	01212a23          	sw	s2,20(sp)
   13b88:	01000b13          	li	s6,16
   13b8c:	00700d13          	li	s10,7
   13b90:	00080913          	mv	s2,a6
   13b94:	00c0006f          	j	13ba0 <_vfprintf_r+0x11bc>
   13b98:	ff0a0a13          	addi	s4,s4,-16
   13b9c:	7f4b5663          	bge	s6,s4,14388 <_vfprintf_r+0x19a4>
   13ba0:	01060613          	addi	a2,a2,16
   13ba4:	00178793          	addi	a5,a5,1
   13ba8:	01242023          	sw	s2,0(s0)
   13bac:	01642223          	sw	s6,4(s0)
   13bb0:	0cc12623          	sw	a2,204(sp)
   13bb4:	0cf12423          	sw	a5,200(sp)
   13bb8:	00840413          	addi	s0,s0,8
   13bbc:	fcfd5ee3          	bge	s10,a5,13b98 <_vfprintf_r+0x11b4>
   13bc0:	0c410613          	addi	a2,sp,196
   13bc4:	00048593          	mv	a1,s1
   13bc8:	000b8513          	mv	a0,s7
   13bcc:	794010ef          	jal	15360 <__sprint_r>
   13bd0:	ca051ce3          	bnez	a0,13888 <_vfprintf_r+0xea4>
   13bd4:	0cc12603          	lw	a2,204(sp)
   13bd8:	0c812783          	lw	a5,200(sp)
   13bdc:	00098413          	mv	s0,s3
   13be0:	fb9ff06f          	j	13b98 <_vfprintf_r+0x11b4>
   13be4:	001df593          	andi	a1,s11,1
   13be8:	ca059e63          	bnez	a1,130a4 <_vfprintf_r+0x6c0>
   13bec:	00e42223          	sw	a4,4(s0)
   13bf0:	0cc12623          	sw	a2,204(sp)
   13bf4:	0d412423          	sw	s4,200(sp)
   13bf8:	00700793          	li	a5,7
   13bfc:	d747d663          	bge	a5,s4,13168 <_vfprintf_r+0x784>
   13c00:	0c410613          	addi	a2,sp,196
   13c04:	00048593          	mv	a1,s1
   13c08:	000b8513          	mv	a0,s7
   13c0c:	754010ef          	jal	15360 <__sprint_r>
   13c10:	c6051ce3          	bnez	a0,13888 <_vfprintf_r+0xea4>
   13c14:	0cc12603          	lw	a2,204(sp)
   13c18:	0c812a03          	lw	s4,200(sp)
   13c1c:	00098b13          	mv	s6,s3
   13c20:	d48ff06f          	j	13168 <_vfprintf_r+0x784>
   13c24:	01812703          	lw	a4,24(sp)
   13c28:	00100793          	li	a5,1
   13c2c:	d2e7de63          	bge	a5,a4,13168 <_vfprintf_r+0x784>
   13c30:	00023837          	lui	a6,0x23
   13c34:	01100793          	li	a5,17
   13c38:	bec80813          	addi	a6,a6,-1044 # 22bec <zeroes.0>
   13c3c:	0ce7d6e3          	bge	a5,a4,14508 <_vfprintf_r+0x1b24>
   13c40:	01212a23          	sw	s2,20(sp)
   13c44:	01000793          	li	a5,16
   13c48:	00700d13          	li	s10,7
   13c4c:	00080913          	mv	s2,a6
   13c50:	00c0006f          	j	13c5c <_vfprintf_r+0x1278>
   13c54:	ff040413          	addi	s0,s0,-16
   13c58:	0a87d4e3          	bge	a5,s0,14500 <_vfprintf_r+0x1b1c>
   13c5c:	01060613          	addi	a2,a2,16
   13c60:	001a0a13          	addi	s4,s4,1
   13c64:	012b2023          	sw	s2,0(s6)
   13c68:	00fb2223          	sw	a5,4(s6)
   13c6c:	0cc12623          	sw	a2,204(sp)
   13c70:	0d412423          	sw	s4,200(sp)
   13c74:	008b0b13          	addi	s6,s6,8
   13c78:	fd4d5ee3          	bge	s10,s4,13c54 <_vfprintf_r+0x1270>
   13c7c:	0c410613          	addi	a2,sp,196
   13c80:	00048593          	mv	a1,s1
   13c84:	000b8513          	mv	a0,s7
   13c88:	6d8010ef          	jal	15360 <__sprint_r>
   13c8c:	be051ee3          	bnez	a0,13888 <_vfprintf_r+0xea4>
   13c90:	0cc12603          	lw	a2,204(sp)
   13c94:	0c812a03          	lw	s4,200(sp)
   13c98:	00098b13          	mv	s6,s3
   13c9c:	01000793          	li	a5,16
   13ca0:	fb5ff06f          	j	13c54 <_vfprintf_r+0x1270>
   13ca4:	00c12683          	lw	a3,12(sp)
   13ca8:	01067793          	andi	a5,a2,16
   13cac:	0006a703          	lw	a4,0(a3)
   13cb0:	00468693          	addi	a3,a3,4
   13cb4:	00d12623          	sw	a3,12(sp)
   13cb8:	04079863          	bnez	a5,13d08 <_vfprintf_r+0x1324>
   13cbc:	04067793          	andi	a5,a2,64
   13cc0:	04078063          	beqz	a5,13d00 <_vfprintf_r+0x131c>
   13cc4:	01071b13          	slli	s6,a4,0x10
   13cc8:	010b5b13          	srli	s6,s6,0x10
   13ccc:	00000813          	li	a6,0
   13cd0:	00100793          	li	a5,1
   13cd4:	9fcff06f          	j	12ed0 <_vfprintf_r+0x4ec>
   13cd8:	00000b13          	li	s6,0
   13cdc:	19010d13          	addi	s10,sp,400
   13ce0:	994ff06f          	j	12e74 <_vfprintf_r+0x490>
   13ce4:	001df793          	andi	a5,s11,1
   13ce8:	00079463          	bnez	a5,13cf0 <_vfprintf_r+0x130c>
   13cec:	ff1fe06f          	j	12cdc <_vfprintf_r+0x2f8>
   13cf0:	8a1ff06f          	j	13590 <_vfprintf_r+0xbac>
   13cf4:	00094883          	lbu	a7,0(s2)
   13cf8:	00f12623          	sw	a5,12(sp)
   13cfc:	e95fe06f          	j	12b90 <_vfprintf_r+0x1ac>
   13d00:	20067793          	andi	a5,a2,512
   13d04:	38079ee3          	bnez	a5,148a0 <_vfprintf_r+0x1ebc>
   13d08:	00070b13          	mv	s6,a4
   13d0c:	00000813          	li	a6,0
   13d10:	00100793          	li	a5,1
   13d14:	9bcff06f          	j	12ed0 <_vfprintf_r+0x4ec>
   13d18:	200df793          	andi	a5,s11,512
   13d1c:	360796e3          	bnez	a5,14888 <_vfprintf_r+0x1ea4>
   13d20:	00070b13          	mv	s6,a4
   13d24:	00000813          	li	a6,0
   13d28:	9a0ff06f          	j	12ec8 <_vfprintf_r+0x4e4>
   13d2c:	200df793          	andi	a5,s11,512
   13d30:	340792e3          	bnez	a5,14874 <_vfprintf_r+0x1e90>
   13d34:	41f75813          	srai	a6,a4,0x1f
   13d38:	00070b13          	mv	s6,a4
   13d3c:	00080793          	mv	a5,a6
   13d40:	90cff06f          	j	12e4c <_vfprintf_r+0x468>
   13d44:	03812783          	lw	a5,56(sp)
   13d48:	00094883          	lbu	a7,0(s2)
   13d4c:	00079463          	bnez	a5,13d54 <_vfprintf_r+0x1370>
   13d50:	e41fe06f          	j	12b90 <_vfprintf_r+0x1ac>
   13d54:	0007c783          	lbu	a5,0(a5)
   13d58:	00079463          	bnez	a5,13d60 <_vfprintf_r+0x137c>
   13d5c:	e35fe06f          	j	12b90 <_vfprintf_r+0x1ac>
   13d60:	400ded93          	ori	s11,s11,1024
   13d64:	e2dfe06f          	j	12b90 <_vfprintf_r+0x1ac>
   13d68:	010df793          	andi	a5,s11,16
   13d6c:	6c079863          	bnez	a5,1443c <_vfprintf_r+0x1a58>
   13d70:	040df793          	andi	a5,s11,64
   13d74:	2e0796e3          	bnez	a5,14860 <_vfprintf_r+0x1e7c>
   13d78:	200dfe13          	andi	t3,s11,512
   13d7c:	6c0e0063          	beqz	t3,1443c <_vfprintf_r+0x1a58>
   13d80:	00c12783          	lw	a5,12(sp)
   13d84:	00412703          	lw	a4,4(sp)
   13d88:	0007a783          	lw	a5,0(a5)
   13d8c:	00e78023          	sb	a4,0(a5)
   13d90:	f34ff06f          	j	134c4 <_vfprintf_r+0xae0>
   13d94:	00c12783          	lw	a5,12(sp)
   13d98:	0007a703          	lw	a4,0(a5)
   13d9c:	00478793          	addi	a5,a5,4
   13da0:	00f12623          	sw	a5,12(sp)
   13da4:	00072583          	lw	a1,0(a4)
   13da8:	00472603          	lw	a2,4(a4)
   13dac:	00872683          	lw	a3,8(a4)
   13db0:	00c72703          	lw	a4,12(a4)
   13db4:	9c8ff06f          	j	12f7c <_vfprintf_r+0x598>
   13db8:	00070a13          	mv	s4,a4
   13dbc:	cf404ae3          	bgtz	s4,13ab0 <_vfprintf_r+0x10cc>
   13dc0:	d19ff06f          	j	13ad8 <_vfprintf_r+0x10f4>
   13dc4:	fff00a13          	li	s4,-1
   13dc8:	00068913          	mv	s2,a3
   13dcc:	dc9fe06f          	j	12b94 <_vfprintf_r+0x1b0>
   13dd0:	000237b7          	lui	a5,0x23
   13dd4:	8d478793          	addi	a5,a5,-1836 # 228d4 <_luts.0+0x228>
   13dd8:	02f12823          	sw	a5,48(sp)
   13ddc:	020df793          	andi	a5,s11,32
   13de0:	3a078463          	beqz	a5,14188 <_vfprintf_r+0x17a4>
   13de4:	00c12783          	lw	a5,12(sp)
   13de8:	00778c13          	addi	s8,a5,7
   13dec:	ff8c7c13          	andi	s8,s8,-8
   13df0:	000c2b03          	lw	s6,0(s8)
   13df4:	004c2803          	lw	a6,4(s8)
   13df8:	008c0793          	addi	a5,s8,8
   13dfc:	00f12623          	sw	a5,12(sp)
   13e00:	001df793          	andi	a5,s11,1
   13e04:	00078e63          	beqz	a5,13e20 <_vfprintf_r+0x143c>
   13e08:	010b67b3          	or	a5,s6,a6
   13e0c:	00078a63          	beqz	a5,13e20 <_vfprintf_r+0x143c>
   13e10:	03000793          	li	a5,48
   13e14:	0af10423          	sb	a5,168(sp)
   13e18:	0b1104a3          	sb	a7,169(sp)
   13e1c:	002ded93          	ori	s11,s11,2
   13e20:	bffdf613          	andi	a2,s11,-1025
   13e24:	00200793          	li	a5,2
   13e28:	8a8ff06f          	j	12ed0 <_vfprintf_r+0x4ec>
   13e2c:	000d8613          	mv	a2,s11
   13e30:	e00ff06f          	j	13430 <_vfprintf_r+0xa4c>
   13e34:	000237b7          	lui	a5,0x23
   13e38:	8c078793          	addi	a5,a5,-1856 # 228c0 <_luts.0+0x214>
   13e3c:	02f12823          	sw	a5,48(sp)
   13e40:	f9dff06f          	j	13ddc <_vfprintf_r+0x13f8>
   13e44:	00194883          	lbu	a7,1(s2)
   13e48:	200ded93          	ori	s11,s11,512
   13e4c:	00190913          	addi	s2,s2,1
   13e50:	d41fe06f          	j	12b90 <_vfprintf_r+0x1ac>
   13e54:	00194883          	lbu	a7,1(s2)
   13e58:	020ded93          	ori	s11,s11,32
   13e5c:	00190913          	addi	s2,s2,1
   13e60:	d31fe06f          	j	12b90 <_vfprintf_r+0x1ac>
   13e64:	0c410613          	addi	a2,sp,196
   13e68:	00048593          	mv	a1,s1
   13e6c:	000b8513          	mv	a0,s7
   13e70:	4f0010ef          	jal	15360 <__sprint_r>
   13e74:	a0051ae3          	bnez	a0,13888 <_vfprintf_r+0xea4>
   13e78:	0cc12603          	lw	a2,204(sp)
   13e7c:	00098413          	mv	s0,s3
   13e80:	f40ff06f          	j	135c0 <_vfprintf_r+0xbdc>
   13e84:	00600793          	li	a5,6
   13e88:	000a0b13          	mv	s6,s4
   13e8c:	1d47e6e3          	bltu	a5,s4,14858 <_vfprintf_r+0x1e74>
   13e90:	000237b7          	lui	a5,0x23
   13e94:	000b0c13          	mv	s8,s6
   13e98:	01012623          	sw	a6,12(sp)
   13e9c:	8e878d13          	addi	s10,a5,-1816 # 228e8 <_luts.0+0x23c>
   13ea0:	d5dfe06f          	j	12bfc <_vfprintf_r+0x218>
   13ea4:	00023837          	lui	a6,0x23
   13ea8:	01000593          	li	a1,16
   13eac:	0c812703          	lw	a4,200(sp)
   13eb0:	bec80813          	addi	a6,a6,-1044 # 22bec <zeroes.0>
   13eb4:	6945d663          	bge	a1,s4,14540 <_vfprintf_r+0x1b5c>
   13eb8:	03212a23          	sw	s2,52(sp)
   13ebc:	01000893          	li	a7,16
   13ec0:	00700b13          	li	s6,7
   13ec4:	00080913          	mv	s2,a6
   13ec8:	00c0006f          	j	13ed4 <_vfprintf_r+0x14f0>
   13ecc:	ff0a0a13          	addi	s4,s4,-16
   13ed0:	6748d463          	bge	a7,s4,14538 <_vfprintf_r+0x1b54>
   13ed4:	01060613          	addi	a2,a2,16
   13ed8:	00170713          	addi	a4,a4,1
   13edc:	01242023          	sw	s2,0(s0)
   13ee0:	01142223          	sw	a7,4(s0)
   13ee4:	0cc12623          	sw	a2,204(sp)
   13ee8:	0ce12423          	sw	a4,200(sp)
   13eec:	00840413          	addi	s0,s0,8
   13ef0:	fceb5ee3          	bge	s6,a4,13ecc <_vfprintf_r+0x14e8>
   13ef4:	0c410613          	addi	a2,sp,196
   13ef8:	00048593          	mv	a1,s1
   13efc:	000b8513          	mv	a0,s7
   13f00:	460010ef          	jal	15360 <__sprint_r>
   13f04:	980512e3          	bnez	a0,13888 <_vfprintf_r+0xea4>
   13f08:	0cc12603          	lw	a2,204(sp)
   13f0c:	0c812703          	lw	a4,200(sp)
   13f10:	00098413          	mv	s0,s3
   13f14:	01000893          	li	a7,16
   13f18:	fb5ff06f          	j	13ecc <_vfprintf_r+0x14e8>
   13f1c:	02c12703          	lw	a4,44(sp)
   13f20:	02812783          	lw	a5,40(sp)
   13f24:	00700513          	li	a0,7
   13f28:	00e42023          	sw	a4,0(s0)
   13f2c:	0c812703          	lw	a4,200(sp)
   13f30:	00f60633          	add	a2,a2,a5
   13f34:	00f42223          	sw	a5,4(s0)
   13f38:	00170713          	addi	a4,a4,1
   13f3c:	0cc12623          	sw	a2,204(sp)
   13f40:	0ce12423          	sw	a4,200(sp)
   13f44:	00840413          	addi	s0,s0,8
   13f48:	bce556e3          	bge	a0,a4,13b14 <_vfprintf_r+0x1130>
   13f4c:	0c410613          	addi	a2,sp,196
   13f50:	00048593          	mv	a1,s1
   13f54:	000b8513          	mv	a0,s7
   13f58:	408010ef          	jal	15360 <__sprint_r>
   13f5c:	920516e3          	bnez	a0,13888 <_vfprintf_r+0xea4>
   13f60:	0ac12583          	lw	a1,172(sp)
   13f64:	0cc12603          	lw	a2,204(sp)
   13f68:	00098413          	mv	s0,s3
   13f6c:	ba9ff06f          	j	13b14 <_vfprintf_r+0x1130>
   13f70:	07800793          	li	a5,120
   13f74:	03000713          	li	a4,48
   13f78:	0ae10423          	sb	a4,168(sp)
   13f7c:	0af104a3          	sb	a5,169(sp)
   13f80:	06300713          	li	a4,99
   13f84:	00012423          	sw	zero,8(sp)
   13f88:	002ded93          	ori	s11,s11,2
   13f8c:	12c10d13          	addi	s10,sp,300
   13f90:	87475463          	bge	a4,s4,12ff8 <_vfprintf_r+0x614>
   13f94:	001a0593          	addi	a1,s4,1
   13f98:	000b8513          	mv	a0,s7
   13f9c:	01112423          	sw	a7,8(sp)
   13fa0:	a80fe0ef          	jal	12220 <_malloc_r>
   13fa4:	00812883          	lw	a7,8(sp)
   13fa8:	00050d13          	mv	s10,a0
   13fac:	00051463          	bnez	a0,13fb4 <_vfprintf_r+0x15d0>
   13fb0:	2bc0106f          	j	1526c <_vfprintf_r+0x2888>
   13fb4:	00a12423          	sw	a0,8(sp)
   13fb8:	840ff06f          	j	12ff8 <_vfprintf_r+0x614>
   13fbc:	09010b13          	addi	s6,sp,144
   13fc0:	0ac10713          	addi	a4,sp,172
   13fc4:	0bc10813          	addi	a6,sp,188
   13fc8:	0b010793          	addi	a5,sp,176
   13fcc:	000a0693          	mv	a3,s4
   13fd0:	00200613          	li	a2,2
   13fd4:	000b0593          	mv	a1,s6
   13fd8:	000b8513          	mv	a0,s7
   13fdc:	03112023          	sw	a7,32(sp)
   13fe0:	09f12823          	sw	t6,144(sp)
   13fe4:	01f12e23          	sw	t6,28(sp)
   13fe8:	09e12a23          	sw	t5,148(sp)
   13fec:	01e12c23          	sw	t5,24(sp)
   13ff0:	09d12c23          	sw	t4,152(sp)
   13ff4:	01d12a23          	sw	t4,20(sp)
   13ff8:	09812e23          	sw	s8,156(sp)
   13ffc:	7fc020ef          	jal	167f8 <_ldtoa_r>
   14000:	001df713          	andi	a4,s11,1
   14004:	01412e83          	lw	t4,20(sp)
   14008:	01812f03          	lw	t5,24(sp)
   1400c:	01c12f83          	lw	t6,28(sp)
   14010:	02012883          	lw	a7,32(sp)
   14014:	00050d13          	mv	s10,a0
   14018:	0e0714e3          	bnez	a4,14900 <_vfprintf_r+0x1f1c>
   1401c:	0ac12783          	lw	a5,172(sp)
   14020:	00f12a23          	sw	a5,20(sp)
   14024:	0bc12783          	lw	a5,188(sp)
   14028:	40a787b3          	sub	a5,a5,a0
   1402c:	00f12c23          	sw	a5,24(sp)
   14030:	01412783          	lw	a5,20(sp)
   14034:	ffd00713          	li	a4,-3
   14038:	00e7c463          	blt	a5,a4,14040 <_vfprintf_r+0x165c>
   1403c:	56fa5ee3          	bge	s4,a5,14db8 <_vfprintf_r+0x23d4>
   14040:	01412783          	lw	a5,20(sp)
   14044:	ffe88893          	addi	a7,a7,-2
   14048:	fff78a13          	addi	s4,a5,-1
   1404c:	0b412623          	sw	s4,172(sp)
   14050:	0ff8f693          	zext.b	a3,a7
   14054:	00000613          	li	a2,0
   14058:	0ad10a23          	sb	a3,180(sp)
   1405c:	02b00693          	li	a3,43
   14060:	000a5a63          	bgez	s4,14074 <_vfprintf_r+0x1690>
   14064:	01412783          	lw	a5,20(sp)
   14068:	00100713          	li	a4,1
   1406c:	02d00693          	li	a3,45
   14070:	40f70a33          	sub	s4,a4,a5
   14074:	0ad10aa3          	sb	a3,181(sp)
   14078:	00900693          	li	a3,9
   1407c:	0146c463          	blt	a3,s4,14084 <_vfprintf_r+0x16a0>
   14080:	0200106f          	j	150a0 <_vfprintf_r+0x26bc>
   14084:	0c310613          	addi	a2,sp,195
   14088:	00812a23          	sw	s0,20(sp)
   1408c:	00088b13          	mv	s6,a7
   14090:	00060413          	mv	s0,a2
   14094:	00912e23          	sw	s1,28(sp)
   14098:	00a00593          	li	a1,10
   1409c:	000a0513          	mv	a0,s4
   140a0:	4f80e0ef          	jal	22598 <__modsi3>
   140a4:	03050793          	addi	a5,a0,48
   140a8:	00040c13          	mv	s8,s0
   140ac:	fefc0fa3          	sb	a5,-1(s8)
   140b0:	000a0513          	mv	a0,s4
   140b4:	00a00593          	li	a1,10
   140b8:	45c0e0ef          	jal	22514 <__divsi3>
   140bc:	000a0493          	mv	s1,s4
   140c0:	06300793          	li	a5,99
   140c4:	fff40413          	addi	s0,s0,-1
   140c8:	00050a13          	mv	s4,a0
   140cc:	fc97c6e3          	blt	a5,s1,14098 <_vfprintf_r+0x16b4>
   140d0:	00040613          	mv	a2,s0
   140d4:	03050713          	addi	a4,a0,48
   140d8:	ffec0693          	addi	a3,s8,-2
   140dc:	fee60fa3          	sb	a4,-1(a2)
   140e0:	0c310793          	addi	a5,sp,195
   140e4:	01412403          	lw	s0,20(sp)
   140e8:	01c12483          	lw	s1,28(sp)
   140ec:	000b0893          	mv	a7,s6
   140f0:	00f6e463          	bltu	a3,a5,140f8 <_vfprintf_r+0x1714>
   140f4:	1300106f          	j	15224 <_vfprintf_r+0x2840>
   140f8:	0b610613          	addi	a2,sp,182
   140fc:	0006c783          	lbu	a5,0(a3)
   14100:	00168693          	addi	a3,a3,1
   14104:	00160613          	addi	a2,a2,1
   14108:	fef60fa3          	sb	a5,-1(a2)
   1410c:	0c310793          	addi	a5,sp,195
   14110:	fef696e3          	bne	a3,a5,140fc <_vfprintf_r+0x1718>
   14114:	19010793          	addi	a5,sp,400
   14118:	41878733          	sub	a4,a5,s8
   1411c:	f3770793          	addi	a5,a4,-201
   14120:	02f12e23          	sw	a5,60(sp)
   14124:	01812783          	lw	a5,24(sp)
   14128:	03c12683          	lw	a3,60(sp)
   1412c:	00100713          	li	a4,1
   14130:	00d78b33          	add	s6,a5,a3
   14134:	00f74463          	blt	a4,a5,1413c <_vfprintf_r+0x1758>
   14138:	7a50006f          	j	150dc <_vfprintf_r+0x26f8>
   1413c:	02812783          	lw	a5,40(sp)
   14140:	00fb0b33          	add	s6,s6,a5
   14144:	fffb4693          	not	a3,s6
   14148:	bffdfe13          	andi	t3,s11,-1025
   1414c:	41f6d693          	srai	a3,a3,0x1f
   14150:	100e6793          	ori	a5,t3,256
   14154:	04f12423          	sw	a5,72(sp)
   14158:	00db7c33          	and	s8,s6,a3
   1415c:	02012023          	sw	zero,32(sp)
   14160:	00012e23          	sw	zero,28(sp)
   14164:	00012a23          	sw	zero,20(sp)
   14168:	03412783          	lw	a5,52(sp)
   1416c:	42078ae3          	beqz	a5,14da0 <_vfprintf_r+0x23bc>
   14170:	02d00713          	li	a4,45
   14174:	04812d83          	lw	s11,72(sp)
   14178:	0ae103a3          	sb	a4,167(sp)
   1417c:	00000a13          	li	s4,0
   14180:	001c0c13          	addi	s8,s8,1
   14184:	a8dfe06f          	j	12c10 <_vfprintf_r+0x22c>
   14188:	00c12683          	lw	a3,12(sp)
   1418c:	010df793          	andi	a5,s11,16
   14190:	0006a703          	lw	a4,0(a3)
   14194:	00468693          	addi	a3,a3,4
   14198:	00d12623          	sw	a3,12(sp)
   1419c:	06079663          	bnez	a5,14208 <_vfprintf_r+0x1824>
   141a0:	040df793          	andi	a5,s11,64
   141a4:	04078e63          	beqz	a5,14200 <_vfprintf_r+0x181c>
   141a8:	01071b13          	slli	s6,a4,0x10
   141ac:	010b5b13          	srli	s6,s6,0x10
   141b0:	00000813          	li	a6,0
   141b4:	c4dff06f          	j	13e00 <_vfprintf_r+0x141c>
   141b8:	0c410613          	addi	a2,sp,196
   141bc:	00048593          	mv	a1,s1
   141c0:	000b8513          	mv	a0,s7
   141c4:	19c010ef          	jal	15360 <__sprint_r>
   141c8:	ec051063          	bnez	a0,13888 <_vfprintf_r+0xea4>
   141cc:	0cc12603          	lw	a2,204(sp)
   141d0:	0c812a03          	lw	s4,200(sp)
   141d4:	00098b13          	mv	s6,s3
   141d8:	ee9fe06f          	j	130c0 <_vfprintf_r+0x6dc>
   141dc:	0c410613          	addi	a2,sp,196
   141e0:	00048593          	mv	a1,s1
   141e4:	000b8513          	mv	a0,s7
   141e8:	178010ef          	jal	15360 <__sprint_r>
   141ec:	e8051e63          	bnez	a0,13888 <_vfprintf_r+0xea4>
   141f0:	0cc12603          	lw	a2,204(sp)
   141f4:	0c812a03          	lw	s4,200(sp)
   141f8:	00098b13          	mv	s6,s3
   141fc:	ef5fe06f          	j	130f0 <_vfprintf_r+0x70c>
   14200:	200df793          	andi	a5,s11,512
   14204:	68079863          	bnez	a5,14894 <_vfprintf_r+0x1eb0>
   14208:	00070b13          	mv	s6,a4
   1420c:	00000813          	li	a6,0
   14210:	bf1ff06f          	j	13e00 <_vfprintf_r+0x141c>
   14214:	19010c13          	addi	s8,sp,400
   14218:	01212423          	sw	s2,8(sp)
   1421c:	02812023          	sw	s0,32(sp)
   14220:	02912a23          	sw	s1,52(sp)
   14224:	03812403          	lw	s0,56(sp)
   14228:	40067d93          	andi	s11,a2,1024
   1422c:	00000d13          	li	s10,0
   14230:	01112a23          	sw	a7,20(sp)
   14234:	00c12e23          	sw	a2,28(sp)
   14238:	000c0493          	mv	s1,s8
   1423c:	00080913          	mv	s2,a6
   14240:	0280006f          	j	14268 <_vfprintf_r+0x1884>
   14244:	00a00613          	li	a2,10
   14248:	00000693          	li	a3,0
   1424c:	000b0513          	mv	a0,s6
   14250:	00090593          	mv	a1,s2
   14254:	630080ef          	jal	1c884 <__udivdi3>
   14258:	3e0906e3          	beqz	s2,14e44 <_vfprintf_r+0x2460>
   1425c:	00050b13          	mv	s6,a0
   14260:	00058913          	mv	s2,a1
   14264:	000c0493          	mv	s1,s8
   14268:	00a00613          	li	a2,10
   1426c:	00000693          	li	a3,0
   14270:	000b0513          	mv	a0,s6
   14274:	00090593          	mv	a1,s2
   14278:	3d1080ef          	jal	1ce48 <__umoddi3>
   1427c:	03050513          	addi	a0,a0,48
   14280:	fea48fa3          	sb	a0,-1(s1)
   14284:	fff48c13          	addi	s8,s1,-1
   14288:	001d0d13          	addi	s10,s10,1
   1428c:	fa0d8ce3          	beqz	s11,14244 <_vfprintf_r+0x1860>
   14290:	00044783          	lbu	a5,0(s0)
   14294:	fafd18e3          	bne	s10,a5,14244 <_vfprintf_r+0x1860>
   14298:	0ff00793          	li	a5,255
   1429c:	fafd04e3          	beq	s10,a5,14244 <_vfprintf_r+0x1860>
   142a0:	2e091263          	bnez	s2,14584 <_vfprintf_r+0x1ba0>
   142a4:	00900793          	li	a5,9
   142a8:	2d67ee63          	bltu	a5,s6,14584 <_vfprintf_r+0x1ba0>
   142ac:	01c12603          	lw	a2,28(sp)
   142b0:	01a12c23          	sw	s10,24(sp)
   142b4:	19010793          	addi	a5,sp,400
   142b8:	000c0d13          	mv	s10,s8
   142bc:	02812c23          	sw	s0,56(sp)
   142c0:	00812903          	lw	s2,8(sp)
   142c4:	01412883          	lw	a7,20(sp)
   142c8:	02012403          	lw	s0,32(sp)
   142cc:	03412483          	lw	s1,52(sp)
   142d0:	41a78b33          	sub	s6,a5,s10
   142d4:	00060d93          	mv	s11,a2
   142d8:	b9dfe06f          	j	12e74 <_vfprintf_r+0x490>
   142dc:	0c812703          	lw	a4,200(sp)
   142e0:	000235b7          	lui	a1,0x23
   142e4:	8f058593          	addi	a1,a1,-1808 # 228f0 <_luts.0+0x244>
   142e8:	00b42023          	sw	a1,0(s0)
   142ec:	00160613          	addi	a2,a2,1
   142f0:	00100593          	li	a1,1
   142f4:	00170713          	addi	a4,a4,1
   142f8:	00b42223          	sw	a1,4(s0)
   142fc:	0cc12623          	sw	a2,204(sp)
   14300:	0ce12423          	sw	a4,200(sp)
   14304:	00700593          	li	a1,7
   14308:	00840413          	addi	s0,s0,8
   1430c:	4ee5ca63          	blt	a1,a4,14800 <_vfprintf_r+0x1e1c>
   14310:	14051063          	bnez	a0,14450 <_vfprintf_r+0x1a6c>
   14314:	01812783          	lw	a5,24(sp)
   14318:	001df713          	andi	a4,s11,1
   1431c:	00f76733          	or	a4,a4,a5
   14320:	00071463          	bnez	a4,14328 <_vfprintf_r+0x1944>
   14324:	9b9fe06f          	j	12cdc <_vfprintf_r+0x2f8>
   14328:	02c12703          	lw	a4,44(sp)
   1432c:	02812783          	lw	a5,40(sp)
   14330:	00700593          	li	a1,7
   14334:	00e42023          	sw	a4,0(s0)
   14338:	0c812703          	lw	a4,200(sp)
   1433c:	00c78633          	add	a2,a5,a2
   14340:	00f42223          	sw	a5,4(s0)
   14344:	00170713          	addi	a4,a4,1
   14348:	0cc12623          	sw	a2,204(sp)
   1434c:	0ce12423          	sw	a4,200(sp)
   14350:	58e5c263          	blt	a1,a4,148d4 <_vfprintf_r+0x1ef0>
   14354:	00840413          	addi	s0,s0,8
   14358:	12c0006f          	j	14484 <_vfprintf_r+0x1aa0>
   1435c:	02412503          	lw	a0,36(sp)
   14360:	8b8fd0ef          	jal	11418 <__sinit>
   14364:	ee0fe06f          	j	12a44 <_vfprintf_r+0x60>
   14368:	0c410613          	addi	a2,sp,196
   1436c:	00048593          	mv	a1,s1
   14370:	000b8513          	mv	a0,s7
   14374:	7ed000ef          	jal	15360 <__sprint_r>
   14378:	d0051863          	bnez	a0,13888 <_vfprintf_r+0xea4>
   1437c:	0cc12603          	lw	a2,204(sp)
   14380:	00098413          	mv	s0,s3
   14384:	a00ff06f          	j	13584 <_vfprintf_r+0xba0>
   14388:	00090813          	mv	a6,s2
   1438c:	01412903          	lw	s2,20(sp)
   14390:	01042023          	sw	a6,0(s0)
   14394:	01442223          	sw	s4,4(s0)
   14398:	01460633          	add	a2,a2,s4
   1439c:	00178793          	addi	a5,a5,1
   143a0:	0cc12623          	sw	a2,204(sp)
   143a4:	0cf12423          	sw	a5,200(sp)
   143a8:	00700713          	li	a4,7
   143ac:	00f74463          	blt	a4,a5,143b4 <_vfprintf_r+0x19d0>
   143b0:	929fe06f          	j	12cd8 <_vfprintf_r+0x2f4>
   143b4:	de1fe06f          	j	13194 <_vfprintf_r+0x7b0>
   143b8:	0d012783          	lw	a5,208(sp)
   143bc:	08010593          	addi	a1,sp,128
   143c0:	09010513          	addi	a0,sp,144
   143c4:	08f12823          	sw	a5,144(sp)
   143c8:	0d412783          	lw	a5,212(sp)
   143cc:	08012023          	sw	zero,128(sp)
   143d0:	08012223          	sw	zero,132(sp)
   143d4:	08f12a23          	sw	a5,148(sp)
   143d8:	0d812783          	lw	a5,216(sp)
   143dc:	08012423          	sw	zero,136(sp)
   143e0:	08012623          	sw	zero,140(sp)
   143e4:	08f12c23          	sw	a5,152(sp)
   143e8:	0dc12783          	lw	a5,220(sp)
   143ec:	08f12e23          	sw	a5,156(sp)
   143f0:	25c0b0ef          	jal	1f64c <__letf2>
   143f4:	00812883          	lw	a7,8(sp)
   143f8:	260542e3          	bltz	a0,14e5c <_vfprintf_r+0x2478>
   143fc:	0a714703          	lbu	a4,167(sp)
   14400:	04700793          	li	a5,71
   14404:	4317d263          	bge	a5,a7,14828 <_vfprintf_r+0x1e44>
   14408:	000237b7          	lui	a5,0x23
   1440c:	8b478d13          	addi	s10,a5,-1868 # 228b4 <_luts.0+0x208>
   14410:	00012423          	sw	zero,8(sp)
   14414:	02012023          	sw	zero,32(sp)
   14418:	00012e23          	sw	zero,28(sp)
   1441c:	00012a23          	sw	zero,20(sp)
   14420:	f7fdfd93          	andi	s11,s11,-129
   14424:	00300c13          	li	s8,3
   14428:	00300b13          	li	s6,3
   1442c:	00000a13          	li	s4,0
   14430:	00070463          	beqz	a4,14438 <_vfprintf_r+0x1a54>
   14434:	a65fe06f          	j	12e98 <_vfprintf_r+0x4b4>
   14438:	fd8fe06f          	j	12c10 <_vfprintf_r+0x22c>
   1443c:	00c12783          	lw	a5,12(sp)
   14440:	00412703          	lw	a4,4(sp)
   14444:	0007a783          	lw	a5,0(a5)
   14448:	00e7a023          	sw	a4,0(a5)
   1444c:	878ff06f          	j	134c4 <_vfprintf_r+0xae0>
   14450:	02c12703          	lw	a4,44(sp)
   14454:	02812783          	lw	a5,40(sp)
   14458:	00700593          	li	a1,7
   1445c:	00e42023          	sw	a4,0(s0)
   14460:	0c812703          	lw	a4,200(sp)
   14464:	00c78633          	add	a2,a5,a2
   14468:	00f42223          	sw	a5,4(s0)
   1446c:	00170713          	addi	a4,a4,1
   14470:	0cc12623          	sw	a2,204(sp)
   14474:	0ce12423          	sw	a4,200(sp)
   14478:	00840413          	addi	s0,s0,8
   1447c:	44e5cc63          	blt	a1,a4,148d4 <_vfprintf_r+0x1ef0>
   14480:	34054ae3          	bltz	a0,14fd4 <_vfprintf_r+0x25f0>
   14484:	01812783          	lw	a5,24(sp)
   14488:	00170713          	addi	a4,a4,1
   1448c:	01a42023          	sw	s10,0(s0)
   14490:	00c78633          	add	a2,a5,a2
   14494:	00f42223          	sw	a5,4(s0)
   14498:	0cc12623          	sw	a2,204(sp)
   1449c:	0ce12423          	sw	a4,200(sp)
   144a0:	00700793          	li	a5,7
   144a4:	00e7c463          	blt	a5,a4,144ac <_vfprintf_r+0x1ac8>
   144a8:	831fe06f          	j	12cd8 <_vfprintf_r+0x2f4>
   144ac:	ce9fe06f          	j	13194 <_vfprintf_r+0x7b0>
   144b0:	000d0513          	mv	a0,s10
   144b4:	01012423          	sw	a6,8(sp)
   144b8:	03112a23          	sw	a7,52(sp)
   144bc:	f54fd0ef          	jal	11c10 <strlen>
   144c0:	00812803          	lw	a6,8(sp)
   144c4:	0a714703          	lbu	a4,167(sp)
   144c8:	fff54693          	not	a3,a0
   144cc:	41f6d693          	srai	a3,a3,0x1f
   144d0:	01012623          	sw	a6,12(sp)
   144d4:	00012423          	sw	zero,8(sp)
   144d8:	02012023          	sw	zero,32(sp)
   144dc:	00012e23          	sw	zero,28(sp)
   144e0:	00012a23          	sw	zero,20(sp)
   144e4:	03412883          	lw	a7,52(sp)
   144e8:	00050b13          	mv	s6,a0
   144ec:	00d57c33          	and	s8,a0,a3
   144f0:	00000a13          	li	s4,0
   144f4:	00070463          	beqz	a4,144fc <_vfprintf_r+0x1b18>
   144f8:	9a1fe06f          	j	12e98 <_vfprintf_r+0x4b4>
   144fc:	f14fe06f          	j	12c10 <_vfprintf_r+0x22c>
   14500:	00090813          	mv	a6,s2
   14504:	01412903          	lw	s2,20(sp)
   14508:	00860633          	add	a2,a2,s0
   1450c:	001a0a13          	addi	s4,s4,1
   14510:	010b2023          	sw	a6,0(s6)
   14514:	c3dfe06f          	j	13150 <_vfprintf_r+0x76c>
   14518:	0dc12783          	lw	a5,220(sp)
   1451c:	3807ca63          	bltz	a5,148b0 <_vfprintf_r+0x1ecc>
   14520:	0a714703          	lbu	a4,167(sp)
   14524:	04700793          	li	a5,71
   14528:	1b17c0e3          	blt	a5,a7,14ec8 <_vfprintf_r+0x24e4>
   1452c:	000237b7          	lui	a5,0x23
   14530:	8b878d13          	addi	s10,a5,-1864 # 228b8 <_luts.0+0x20c>
   14534:	eddff06f          	j	14410 <_vfprintf_r+0x1a2c>
   14538:	00090813          	mv	a6,s2
   1453c:	03412903          	lw	s2,52(sp)
   14540:	01460633          	add	a2,a2,s4
   14544:	00170713          	addi	a4,a4,1
   14548:	01042023          	sw	a6,0(s0)
   1454c:	01442223          	sw	s4,4(s0)
   14550:	0cc12623          	sw	a2,204(sp)
   14554:	0ce12423          	sw	a4,200(sp)
   14558:	00700593          	li	a1,7
   1455c:	00840413          	addi	s0,s0,8
   14560:	d8e5d863          	bge	a1,a4,13af0 <_vfprintf_r+0x110c>
   14564:	0c410613          	addi	a2,sp,196
   14568:	00048593          	mv	a1,s1
   1456c:	000b8513          	mv	a0,s7
   14570:	5f1000ef          	jal	15360 <__sprint_r>
   14574:	b0051a63          	bnez	a0,13888 <_vfprintf_r+0xea4>
   14578:	0cc12603          	lw	a2,204(sp)
   1457c:	00098413          	mv	s0,s3
   14580:	d70ff06f          	j	13af0 <_vfprintf_r+0x110c>
   14584:	04012783          	lw	a5,64(sp)
   14588:	04412583          	lw	a1,68(sp)
   1458c:	00000d13          	li	s10,0
   14590:	40fc0c33          	sub	s8,s8,a5
   14594:	00078613          	mv	a2,a5
   14598:	000c0513          	mv	a0,s8
   1459c:	415010ef          	jal	161b0 <strncpy>
   145a0:	00144783          	lbu	a5,1(s0)
   145a4:	00a00613          	li	a2,10
   145a8:	00000693          	li	a3,0
   145ac:	00f037b3          	snez	a5,a5
   145b0:	000b0513          	mv	a0,s6
   145b4:	00090593          	mv	a1,s2
   145b8:	00f40433          	add	s0,s0,a5
   145bc:	2c8080ef          	jal	1c884 <__udivdi3>
   145c0:	c9dff06f          	j	1425c <_vfprintf_r+0x1878>
   145c4:	01812783          	lw	a5,24(sp)
   145c8:	01c12b03          	lw	s6,28(sp)
   145cc:	000238b7          	lui	a7,0x23
   145d0:	00fd07b3          	add	a5,s10,a5
   145d4:	03212a23          	sw	s2,52(sp)
   145d8:	05912623          	sw	s9,76(sp)
   145dc:	01812e23          	sw	s8,28(sp)
   145e0:	05a12823          	sw	s10,80(sp)
   145e4:	05b12423          	sw	s11,72(sp)
   145e8:	000a0c93          	mv	s9,s4
   145ec:	00040693          	mv	a3,s0
   145f0:	04012a03          	lw	s4,64(sp)
   145f4:	04412403          	lw	s0,68(sp)
   145f8:	03812c03          	lw	s8,56(sp)
   145fc:	02012d03          	lw	s10,32(sp)
   14600:	00700813          	li	a6,7
   14604:	01000713          	li	a4,16
   14608:	bec88893          	addi	a7,a7,-1044 # 22bec <zeroes.0>
   1460c:	00078913          	mv	s2,a5
   14610:	09605463          	blez	s6,14698 <_vfprintf_r+0x1cb4>
   14614:	17a05e63          	blez	s10,14790 <_vfprintf_r+0x1dac>
   14618:	fffd0d13          	addi	s10,s10,-1
   1461c:	0c812783          	lw	a5,200(sp)
   14620:	01460633          	add	a2,a2,s4
   14624:	0086a023          	sw	s0,0(a3)
   14628:	00178793          	addi	a5,a5,1
   1462c:	0146a223          	sw	s4,4(a3)
   14630:	0cc12623          	sw	a2,204(sp)
   14634:	0cf12423          	sw	a5,200(sp)
   14638:	00868693          	addi	a3,a3,8
   1463c:	16f84063          	blt	a6,a5,1479c <_vfprintf_r+0x1db8>
   14640:	000c4583          	lbu	a1,0(s8)
   14644:	41990db3          	sub	s11,s2,s9
   14648:	01b5d463          	bge	a1,s11,14650 <_vfprintf_r+0x1c6c>
   1464c:	00058d93          	mv	s11,a1
   14650:	03b05663          	blez	s11,1467c <_vfprintf_r+0x1c98>
   14654:	0c812583          	lw	a1,200(sp)
   14658:	01b60633          	add	a2,a2,s11
   1465c:	0196a023          	sw	s9,0(a3)
   14660:	00158593          	addi	a1,a1,1
   14664:	01b6a223          	sw	s11,4(a3)
   14668:	0cc12623          	sw	a2,204(sp)
   1466c:	0cb12423          	sw	a1,200(sp)
   14670:	14b84e63          	blt	a6,a1,147cc <_vfprintf_r+0x1de8>
   14674:	000c4583          	lbu	a1,0(s8)
   14678:	00868693          	addi	a3,a3,8
   1467c:	fffdc513          	not	a0,s11
   14680:	41f55513          	srai	a0,a0,0x1f
   14684:	00adf7b3          	and	a5,s11,a0
   14688:	40f58db3          	sub	s11,a1,a5
   1468c:	05b04263          	bgtz	s11,146d0 <_vfprintf_r+0x1cec>
   14690:	00bc8cb3          	add	s9,s9,a1
   14694:	f96040e3          	bgtz	s6,14614 <_vfprintf_r+0x1c30>
   14698:	f9a040e3          	bgtz	s10,14618 <_vfprintf_r+0x1c34>
   1469c:	05012d03          	lw	s10,80(sp)
   146a0:	01812783          	lw	a5,24(sp)
   146a4:	03812c23          	sw	s8,56(sp)
   146a8:	000c8a13          	mv	s4,s9
   146ac:	00fd0733          	add	a4,s10,a5
   146b0:	03412903          	lw	s2,52(sp)
   146b4:	04812d83          	lw	s11,72(sp)
   146b8:	04c12c83          	lw	s9,76(sp)
   146bc:	01c12c03          	lw	s8,28(sp)
   146c0:	00068413          	mv	s0,a3
   146c4:	c3477e63          	bgeu	a4,s4,13b00 <_vfprintf_r+0x111c>
   146c8:	00070a13          	mv	s4,a4
   146cc:	c34ff06f          	j	13b00 <_vfprintf_r+0x111c>
   146d0:	00023fb7          	lui	t6,0x23
   146d4:	0c812583          	lw	a1,200(sp)
   146d8:	becf8f93          	addi	t6,t6,-1044 # 22bec <zeroes.0>
   146dc:	09b75463          	bge	a4,s11,14764 <_vfprintf_r+0x1d80>
   146e0:	00812a23          	sw	s0,20(sp)
   146e4:	000d8413          	mv	s0,s11
   146e8:	00090d93          	mv	s11,s2
   146ec:	00088913          	mv	s2,a7
   146f0:	00c0006f          	j	146fc <_vfprintf_r+0x1d18>
   146f4:	ff040413          	addi	s0,s0,-16
   146f8:	04875e63          	bge	a4,s0,14754 <_vfprintf_r+0x1d70>
   146fc:	01060613          	addi	a2,a2,16
   14700:	00158593          	addi	a1,a1,1
   14704:	0116a023          	sw	a7,0(a3)
   14708:	00e6a223          	sw	a4,4(a3)
   1470c:	0cc12623          	sw	a2,204(sp)
   14710:	0cb12423          	sw	a1,200(sp)
   14714:	00868693          	addi	a3,a3,8
   14718:	fcb85ee3          	bge	a6,a1,146f4 <_vfprintf_r+0x1d10>
   1471c:	0c410613          	addi	a2,sp,196
   14720:	00048593          	mv	a1,s1
   14724:	000b8513          	mv	a0,s7
   14728:	439000ef          	jal	15360 <__sprint_r>
   1472c:	94051e63          	bnez	a0,13888 <_vfprintf_r+0xea4>
   14730:	000237b7          	lui	a5,0x23
   14734:	01000713          	li	a4,16
   14738:	ff040413          	addi	s0,s0,-16
   1473c:	0cc12603          	lw	a2,204(sp)
   14740:	0c812583          	lw	a1,200(sp)
   14744:	00098693          	mv	a3,s3
   14748:	bec78893          	addi	a7,a5,-1044 # 22bec <zeroes.0>
   1474c:	00700813          	li	a6,7
   14750:	fa8746e3          	blt	a4,s0,146fc <_vfprintf_r+0x1d18>
   14754:	00090f93          	mv	t6,s2
   14758:	000d8913          	mv	s2,s11
   1475c:	00040d93          	mv	s11,s0
   14760:	01412403          	lw	s0,20(sp)
   14764:	01b60633          	add	a2,a2,s11
   14768:	00158593          	addi	a1,a1,1
   1476c:	01f6a023          	sw	t6,0(a3)
   14770:	01b6a223          	sw	s11,4(a3)
   14774:	0cc12623          	sw	a2,204(sp)
   14778:	0cb12423          	sw	a1,200(sp)
   1477c:	68b84663          	blt	a6,a1,14e08 <_vfprintf_r+0x2424>
   14780:	000c4583          	lbu	a1,0(s8)
   14784:	00868693          	addi	a3,a3,8
   14788:	00bc8cb3          	add	s9,s9,a1
   1478c:	f09ff06f          	j	14694 <_vfprintf_r+0x1cb0>
   14790:	fffc0c13          	addi	s8,s8,-1
   14794:	fffb0b13          	addi	s6,s6,-1
   14798:	e85ff06f          	j	1461c <_vfprintf_r+0x1c38>
   1479c:	0c410613          	addi	a2,sp,196
   147a0:	00048593          	mv	a1,s1
   147a4:	000b8513          	mv	a0,s7
   147a8:	3b9000ef          	jal	15360 <__sprint_r>
   147ac:	8c051e63          	bnez	a0,13888 <_vfprintf_r+0xea4>
   147b0:	000237b7          	lui	a5,0x23
   147b4:	0cc12603          	lw	a2,204(sp)
   147b8:	00098693          	mv	a3,s3
   147bc:	bec78893          	addi	a7,a5,-1044 # 22bec <zeroes.0>
   147c0:	01000713          	li	a4,16
   147c4:	00700813          	li	a6,7
   147c8:	e79ff06f          	j	14640 <_vfprintf_r+0x1c5c>
   147cc:	0c410613          	addi	a2,sp,196
   147d0:	00048593          	mv	a1,s1
   147d4:	000b8513          	mv	a0,s7
   147d8:	389000ef          	jal	15360 <__sprint_r>
   147dc:	8a051663          	bnez	a0,13888 <_vfprintf_r+0xea4>
   147e0:	000237b7          	lui	a5,0x23
   147e4:	000c4583          	lbu	a1,0(s8)
   147e8:	0cc12603          	lw	a2,204(sp)
   147ec:	00098693          	mv	a3,s3
   147f0:	bec78893          	addi	a7,a5,-1044 # 22bec <zeroes.0>
   147f4:	01000713          	li	a4,16
   147f8:	00700813          	li	a6,7
   147fc:	e81ff06f          	j	1467c <_vfprintf_r+0x1c98>
   14800:	0c410613          	addi	a2,sp,196
   14804:	00048593          	mv	a1,s1
   14808:	000b8513          	mv	a0,s7
   1480c:	355000ef          	jal	15360 <__sprint_r>
   14810:	00050463          	beqz	a0,14818 <_vfprintf_r+0x1e34>
   14814:	874ff06f          	j	13888 <_vfprintf_r+0xea4>
   14818:	0ac12503          	lw	a0,172(sp)
   1481c:	0cc12603          	lw	a2,204(sp)
   14820:	00098413          	mv	s0,s3
   14824:	aedff06f          	j	14310 <_vfprintf_r+0x192c>
   14828:	000237b7          	lui	a5,0x23
   1482c:	8b078d13          	addi	s10,a5,-1872 # 228b0 <_luts.0+0x204>
   14830:	be1ff06f          	j	14410 <_vfprintf_r+0x1a2c>
   14834:	0c410613          	addi	a2,sp,196
   14838:	00048593          	mv	a1,s1
   1483c:	000b8513          	mv	a0,s7
   14840:	321000ef          	jal	15360 <__sprint_r>
   14844:	00050463          	beqz	a0,1484c <_vfprintf_r+0x1e68>
   14848:	840ff06f          	j	13888 <_vfprintf_r+0xea4>
   1484c:	0cc12603          	lw	a2,204(sp)
   14850:	00098413          	mv	s0,s3
   14854:	a84ff06f          	j	13ad8 <_vfprintf_r+0x10f4>
   14858:	00600b13          	li	s6,6
   1485c:	e34ff06f          	j	13e90 <_vfprintf_r+0x14ac>
   14860:	00c12783          	lw	a5,12(sp)
   14864:	00412703          	lw	a4,4(sp)
   14868:	0007a783          	lw	a5,0(a5)
   1486c:	00e79023          	sh	a4,0(a5)
   14870:	c55fe06f          	j	134c4 <_vfprintf_r+0xae0>
   14874:	01871b13          	slli	s6,a4,0x18
   14878:	418b5b13          	srai	s6,s6,0x18
   1487c:	41fb5813          	srai	a6,s6,0x1f
   14880:	00080793          	mv	a5,a6
   14884:	dc8fe06f          	j	12e4c <_vfprintf_r+0x468>
   14888:	0ff77b13          	zext.b	s6,a4
   1488c:	00000813          	li	a6,0
   14890:	e38fe06f          	j	12ec8 <_vfprintf_r+0x4e4>
   14894:	0ff77b13          	zext.b	s6,a4
   14898:	00000813          	li	a6,0
   1489c:	d64ff06f          	j	13e00 <_vfprintf_r+0x141c>
   148a0:	0ff77b13          	zext.b	s6,a4
   148a4:	00000813          	li	a6,0
   148a8:	00100793          	li	a5,1
   148ac:	e24fe06f          	j	12ed0 <_vfprintf_r+0x4ec>
   148b0:	02d00793          	li	a5,45
   148b4:	0af103a3          	sb	a5,167(sp)
   148b8:	02d00713          	li	a4,45
   148bc:	c69ff06f          	j	14524 <_vfprintf_r+0x1b40>
   148c0:	02412503          	lw	a0,36(sp)
   148c4:	0c410613          	addi	a2,sp,196
   148c8:	00048593          	mv	a1,s1
   148cc:	295000ef          	jal	15360 <__sprint_r>
   148d0:	c6cfe06f          	j	12d3c <_vfprintf_r+0x358>
   148d4:	0c410613          	addi	a2,sp,196
   148d8:	00048593          	mv	a1,s1
   148dc:	000b8513          	mv	a0,s7
   148e0:	281000ef          	jal	15360 <__sprint_r>
   148e4:	00050463          	beqz	a0,148ec <_vfprintf_r+0x1f08>
   148e8:	fa1fe06f          	j	13888 <_vfprintf_r+0xea4>
   148ec:	0ac12503          	lw	a0,172(sp)
   148f0:	0cc12603          	lw	a2,204(sp)
   148f4:	0c812703          	lw	a4,200(sp)
   148f8:	00098413          	mv	s0,s3
   148fc:	b85ff06f          	j	14480 <_vfprintf_r+0x1a9c>
   14900:	01450733          	add	a4,a0,s4
   14904:	04700613          	li	a2,71
   14908:	08010593          	addi	a1,sp,128
   1490c:	000b0513          	mv	a0,s6
   14910:	00e12e23          	sw	a4,28(sp)
   14914:	00c12c23          	sw	a2,24(sp)
   14918:	01112a23          	sw	a7,20(sp)
   1491c:	09f12823          	sw	t6,144(sp)
   14920:	09e12a23          	sw	t5,148(sp)
   14924:	09d12c23          	sw	t4,152(sp)
   14928:	09812e23          	sw	s8,156(sp)
   1492c:	08012023          	sw	zero,128(sp)
   14930:	08012223          	sw	zero,132(sp)
   14934:	08012423          	sw	zero,136(sp)
   14938:	08012623          	sw	zero,140(sp)
   1493c:	3150a0ef          	jal	1f450 <__eqtf2>
   14940:	01412883          	lw	a7,20(sp)
   14944:	01812603          	lw	a2,24(sp)
   14948:	01c12703          	lw	a4,28(sp)
   1494c:	58050463          	beqz	a0,14ed4 <_vfprintf_r+0x24f0>
   14950:	0bc12783          	lw	a5,188(sp)
   14954:	00e7fe63          	bgeu	a5,a4,14970 <_vfprintf_r+0x1f8c>
   14958:	03000593          	li	a1,48
   1495c:	00178693          	addi	a3,a5,1
   14960:	0ad12e23          	sw	a3,188(sp)
   14964:	00b78023          	sb	a1,0(a5)
   14968:	0bc12783          	lw	a5,188(sp)
   1496c:	fee7e8e3          	bltu	a5,a4,1495c <_vfprintf_r+0x1f78>
   14970:	0ac12703          	lw	a4,172(sp)
   14974:	00e12a23          	sw	a4,20(sp)
   14978:	41a787b3          	sub	a5,a5,s10
   1497c:	04700713          	li	a4,71
   14980:	00f12c23          	sw	a5,24(sp)
   14984:	eae60663          	beq	a2,a4,14030 <_vfprintf_r+0x164c>
   14988:	04600713          	li	a4,70
   1498c:	5ce60e63          	beq	a2,a4,14f68 <_vfprintf_r+0x2584>
   14990:	01412783          	lw	a5,20(sp)
   14994:	fff78a13          	addi	s4,a5,-1
   14998:	eb4ff06f          	j	1404c <_vfprintf_r+0x1668>
   1499c:	001a0693          	addi	a3,s4,1
   149a0:	00200613          	li	a2,2
   149a4:	09010b13          	addi	s6,sp,144
   149a8:	0ac10713          	addi	a4,sp,172
   149ac:	000b0593          	mv	a1,s6
   149b0:	0bc10813          	addi	a6,sp,188
   149b4:	0b010793          	addi	a5,sp,176
   149b8:	000b8513          	mv	a0,s7
   149bc:	05112623          	sw	a7,76(sp)
   149c0:	02d12023          	sw	a3,32(sp)
   149c4:	09f12823          	sw	t6,144(sp)
   149c8:	01f12e23          	sw	t6,28(sp)
   149cc:	09e12a23          	sw	t5,148(sp)
   149d0:	01e12c23          	sw	t5,24(sp)
   149d4:	09d12c23          	sw	t4,152(sp)
   149d8:	01d12a23          	sw	t4,20(sp)
   149dc:	09812e23          	sw	s8,156(sp)
   149e0:	619010ef          	jal	167f8 <_ldtoa_r>
   149e4:	04c12883          	lw	a7,76(sp)
   149e8:	02012683          	lw	a3,32(sp)
   149ec:	04600593          	li	a1,70
   149f0:	fdf8f613          	andi	a2,a7,-33
   149f4:	01412e83          	lw	t4,20(sp)
   149f8:	01812f03          	lw	t5,24(sp)
   149fc:	01c12f83          	lw	t6,28(sp)
   14a00:	00050d13          	mv	s10,a0
   14a04:	00d50733          	add	a4,a0,a3
   14a08:	04b61ce3          	bne	a2,a1,15260 <_vfprintf_r+0x287c>
   14a0c:	000d4503          	lbu	a0,0(s10)
   14a10:	03000593          	li	a1,48
   14a14:	4cb50863          	beq	a0,a1,14ee4 <_vfprintf_r+0x2500>
   14a18:	0ac12683          	lw	a3,172(sp)
   14a1c:	08010593          	addi	a1,sp,128
   14a20:	00d70733          	add	a4,a4,a3
   14a24:	ee9ff06f          	j	1490c <_vfprintf_r+0x1f28>
   14a28:	09010b13          	addi	s6,sp,144
   14a2c:	08010593          	addi	a1,sp,128
   14a30:	0ac10613          	addi	a2,sp,172
   14a34:	000b0513          	mv	a0,s6
   14a38:	05112423          	sw	a7,72(sp)
   14a3c:	09f12023          	sw	t6,128(sp)
   14a40:	09e12223          	sw	t5,132(sp)
   14a44:	09d12423          	sw	t4,136(sp)
   14a48:	00b12a23          	sw	a1,20(sp)
   14a4c:	09812623          	sw	s8,140(sp)
   14a50:	38d010ef          	jal	165dc <frexpl>
   14a54:	09012703          	lw	a4,144(sp)
   14a58:	01412583          	lw	a1,20(sp)
   14a5c:	07010613          	addi	a2,sp,112
   14a60:	08e12023          	sw	a4,128(sp)
   14a64:	09412703          	lw	a4,148(sp)
   14a68:	000b0513          	mv	a0,s6
   14a6c:	06012823          	sw	zero,112(sp)
   14a70:	08e12223          	sw	a4,132(sp)
   14a74:	09812703          	lw	a4,152(sp)
   14a78:	06012a23          	sw	zero,116(sp)
   14a7c:	06012c23          	sw	zero,120(sp)
   14a80:	08e12423          	sw	a4,136(sp)
   14a84:	09c12703          	lw	a4,156(sp)
   14a88:	08e12623          	sw	a4,140(sp)
   14a8c:	3ffc0737          	lui	a4,0x3ffc0
   14a90:	06e12e23          	sw	a4,124(sp)
   14a94:	4e90a0ef          	jal	1f77c <__multf3>
   14a98:	01412583          	lw	a1,20(sp)
   14a9c:	09012f03          	lw	t5,144(sp)
   14aa0:	09412e83          	lw	t4,148(sp)
   14aa4:	09812803          	lw	a6,152(sp)
   14aa8:	09c12603          	lw	a2,156(sp)
   14aac:	000b0513          	mv	a0,s6
   14ab0:	02b12e23          	sw	a1,60(sp)
   14ab4:	03e12023          	sw	t5,32(sp)
   14ab8:	01d12e23          	sw	t4,28(sp)
   14abc:	01012c23          	sw	a6,24(sp)
   14ac0:	00c12a23          	sw	a2,20(sp)
   14ac4:	08012023          	sw	zero,128(sp)
   14ac8:	08012223          	sw	zero,132(sp)
   14acc:	08012423          	sw	zero,136(sp)
   14ad0:	08012623          	sw	zero,140(sp)
   14ad4:	17d0a0ef          	jal	1f450 <__eqtf2>
   14ad8:	01412603          	lw	a2,20(sp)
   14adc:	01812803          	lw	a6,24(sp)
   14ae0:	01c12e83          	lw	t4,28(sp)
   14ae4:	02012f03          	lw	t5,32(sp)
   14ae8:	03c12583          	lw	a1,60(sp)
   14aec:	04812883          	lw	a7,72(sp)
   14af0:	00051663          	bnez	a0,14afc <_vfprintf_r+0x2118>
   14af4:	00100713          	li	a4,1
   14af8:	0ae12623          	sw	a4,172(sp)
   14afc:	06100713          	li	a4,97
   14b00:	6ce88663          	beq	a7,a4,151cc <_vfprintf_r+0x27e8>
   14b04:	00023737          	lui	a4,0x23
   14b08:	8d470793          	addi	a5,a4,-1836 # 228d4 <_luts.0+0x228>
   14b0c:	00f12a23          	sw	a5,20(sp)
   14b10:	01212c23          	sw	s2,24(sp)
   14b14:	03912e23          	sw	s9,60(sp)
   14b18:	04812423          	sw	s0,72(sp)
   14b1c:	000d0913          	mv	s2,s10
   14b20:	05712623          	sw	s7,76(sp)
   14b24:	04912823          	sw	s1,80(sp)
   14b28:	05a12a23          	sw	s10,84(sp)
   14b2c:	01412483          	lw	s1,20(sp)
   14b30:	fffa0a13          	addi	s4,s4,-1
   14b34:	01112e23          	sw	a7,28(sp)
   14b38:	03b12023          	sw	s11,32(sp)
   14b3c:	000f0b93          	mv	s7,t5
   14b40:	000e8c13          	mv	s8,t4
   14b44:	00080c93          	mv	s9,a6
   14b48:	00060d13          	mv	s10,a2
   14b4c:	00058413          	mv	s0,a1
   14b50:	03c0006f          	j	14b8c <_vfprintf_r+0x21a8>
   14b54:	00040593          	mv	a1,s0
   14b58:	000b0513          	mv	a0,s6
   14b5c:	09712823          	sw	s7,144(sp)
   14b60:	09812a23          	sw	s8,148(sp)
   14b64:	09912c23          	sw	s9,152(sp)
   14b68:	09a12e23          	sw	s10,156(sp)
   14b6c:	08012023          	sw	zero,128(sp)
   14b70:	08012223          	sw	zero,132(sp)
   14b74:	08012423          	sw	zero,136(sp)
   14b78:	08012623          	sw	zero,140(sp)
   14b7c:	fffa0d93          	addi	s11,s4,-1
   14b80:	0d10a0ef          	jal	1f450 <__eqtf2>
   14b84:	5e050863          	beqz	a0,15174 <_vfprintf_r+0x2790>
   14b88:	000d8a13          	mv	s4,s11
   14b8c:	400307b7          	lui	a5,0x40030
   14b90:	07010613          	addi	a2,sp,112
   14b94:	00040593          	mv	a1,s0
   14b98:	000b0513          	mv	a0,s6
   14b9c:	06f12e23          	sw	a5,124(sp)
   14ba0:	09712023          	sw	s7,128(sp)
   14ba4:	09812223          	sw	s8,132(sp)
   14ba8:	09912423          	sw	s9,136(sp)
   14bac:	09a12623          	sw	s10,140(sp)
   14bb0:	06012823          	sw	zero,112(sp)
   14bb4:	06012a23          	sw	zero,116(sp)
   14bb8:	06012c23          	sw	zero,120(sp)
   14bbc:	3c10a0ef          	jal	1f77c <__multf3>
   14bc0:	000b0513          	mv	a0,s6
   14bc4:	4d80d0ef          	jal	2209c <__fixtfsi>
   14bc8:	00050593          	mv	a1,a0
   14bcc:	00050d93          	mv	s11,a0
   14bd0:	000b0513          	mv	a0,s6
   14bd4:	09012d03          	lw	s10,144(sp)
   14bd8:	09412c83          	lw	s9,148(sp)
   14bdc:	09812c03          	lw	s8,152(sp)
   14be0:	09c12b83          	lw	s7,156(sp)
   14be4:	5b00d0ef          	jal	22194 <__floatsitf>
   14be8:	09012683          	lw	a3,144(sp)
   14bec:	06010613          	addi	a2,sp,96
   14bf0:	07010593          	addi	a1,sp,112
   14bf4:	06d12023          	sw	a3,96(sp)
   14bf8:	09412683          	lw	a3,148(sp)
   14bfc:	00040513          	mv	a0,s0
   14c00:	07a12823          	sw	s10,112(sp)
   14c04:	06d12223          	sw	a3,100(sp)
   14c08:	09812683          	lw	a3,152(sp)
   14c0c:	07912a23          	sw	s9,116(sp)
   14c10:	07812c23          	sw	s8,120(sp)
   14c14:	06d12423          	sw	a3,104(sp)
   14c18:	09c12683          	lw	a3,156(sp)
   14c1c:	07712e23          	sw	s7,124(sp)
   14c20:	06d12623          	sw	a3,108(sp)
   14c24:	70d0b0ef          	jal	20b30 <__subtf3>
   14c28:	01b486b3          	add	a3,s1,s11
   14c2c:	0006c683          	lbu	a3,0(a3)
   14c30:	00090f93          	mv	t6,s2
   14c34:	00190913          	addi	s2,s2,1
   14c38:	08012b83          	lw	s7,128(sp)
   14c3c:	08412c03          	lw	s8,132(sp)
   14c40:	08812c83          	lw	s9,136(sp)
   14c44:	08c12d03          	lw	s10,140(sp)
   14c48:	fff00793          	li	a5,-1
   14c4c:	fed90fa3          	sb	a3,-1(s2)
   14c50:	f0fa12e3          	bne	s4,a5,14b54 <_vfprintf_r+0x2170>
   14c54:	01c12883          	lw	a7,28(sp)
   14c58:	000b8f13          	mv	t5,s7
   14c5c:	000c0e93          	mv	t4,s8
   14c60:	000c8813          	mv	a6,s9
   14c64:	000d0613          	mv	a2,s10
   14c68:	00040593          	mv	a1,s0
   14c6c:	3ffe0a37          	lui	s4,0x3ffe0
   14c70:	000b0513          	mv	a0,s6
   14c74:	05112e23          	sw	a7,92(sp)
   14c78:	01f12e23          	sw	t6,28(sp)
   14c7c:	05b12c23          	sw	s11,88(sp)
   14c80:	05012483          	lw	s1,80(sp)
   14c84:	02012d83          	lw	s11,32(sp)
   14c88:	04c12b83          	lw	s7,76(sp)
   14c8c:	03c12c83          	lw	s9,60(sp)
   14c90:	04812403          	lw	s0,72(sp)
   14c94:	09e12823          	sw	t5,144(sp)
   14c98:	05e12823          	sw	t5,80(sp)
   14c9c:	09d12a23          	sw	t4,148(sp)
   14ca0:	05d12623          	sw	t4,76(sp)
   14ca4:	09012c23          	sw	a6,152(sp)
   14ca8:	05012423          	sw	a6,72(sp)
   14cac:	08c12e23          	sw	a2,156(sp)
   14cb0:	02c12e23          	sw	a2,60(sp)
   14cb4:	08012023          	sw	zero,128(sp)
   14cb8:	08012223          	sw	zero,132(sp)
   14cbc:	08012423          	sw	zero,136(sp)
   14cc0:	09412623          	sw	s4,140(sp)
   14cc4:	02b12023          	sw	a1,32(sp)
   14cc8:	0550a0ef          	jal	1f51c <__getf2>
   14ccc:	00090c13          	mv	s8,s2
   14cd0:	05412d03          	lw	s10,84(sp)
   14cd4:	01812903          	lw	s2,24(sp)
   14cd8:	01c12f83          	lw	t6,28(sp)
   14cdc:	05c12883          	lw	a7,92(sp)
   14ce0:	02a04663          	bgtz	a0,14d0c <_vfprintf_r+0x2328>
   14ce4:	02012583          	lw	a1,32(sp)
   14ce8:	000b0513          	mv	a0,s6
   14cec:	01112c23          	sw	a7,24(sp)
   14cf0:	7600a0ef          	jal	1f450 <__eqtf2>
   14cf4:	01812883          	lw	a7,24(sp)
   14cf8:	04051e63          	bnez	a0,14d54 <_vfprintf_r+0x2370>
   14cfc:	05812783          	lw	a5,88(sp)
   14d00:	01c12f83          	lw	t6,28(sp)
   14d04:	0017f693          	andi	a3,a5,1
   14d08:	04068663          	beqz	a3,14d54 <_vfprintf_r+0x2370>
   14d0c:	01412783          	lw	a5,20(sp)
   14d10:	0bf12e23          	sw	t6,188(sp)
   14d14:	fffc4603          	lbu	a2,-1(s8)
   14d18:	00f7c583          	lbu	a1,15(a5) # 4003000f <__BSS_END__+0x4000b3f3>
   14d1c:	000c0693          	mv	a3,s8
   14d20:	02b61063          	bne	a2,a1,14d40 <_vfprintf_r+0x235c>
   14d24:	03000513          	li	a0,48
   14d28:	fea68fa3          	sb	a0,-1(a3)
   14d2c:	0bc12683          	lw	a3,188(sp)
   14d30:	fff68793          	addi	a5,a3,-1
   14d34:	0af12e23          	sw	a5,188(sp)
   14d38:	fff6c603          	lbu	a2,-1(a3)
   14d3c:	fec586e3          	beq	a1,a2,14d28 <_vfprintf_r+0x2344>
   14d40:	00160593          	addi	a1,a2,1
   14d44:	03900513          	li	a0,57
   14d48:	0ff5f593          	zext.b	a1,a1
   14d4c:	04a60463          	beq	a2,a0,14d94 <_vfprintf_r+0x23b0>
   14d50:	feb68fa3          	sb	a1,-1(a3)
   14d54:	0ac12783          	lw	a5,172(sp)
   14d58:	41ac0733          	sub	a4,s8,s10
   14d5c:	06100613          	li	a2,97
   14d60:	fff78a13          	addi	s4,a5,-1
   14d64:	00f12a23          	sw	a5,20(sp)
   14d68:	00e12c23          	sw	a4,24(sp)
   14d6c:	0b412623          	sw	s4,172(sp)
   14d70:	07000693          	li	a3,112
   14d74:	00c88663          	beq	a7,a2,14d80 <_vfprintf_r+0x239c>
   14d78:	05000693          	li	a3,80
   14d7c:	04100893          	li	a7,65
   14d80:	00100613          	li	a2,1
   14d84:	ad4ff06f          	j	14058 <_vfprintf_r+0x1674>
   14d88:	000a0693          	mv	a3,s4
   14d8c:	00300613          	li	a2,3
   14d90:	c15ff06f          	j	149a4 <_vfprintf_r+0x1fc0>
   14d94:	01412783          	lw	a5,20(sp)
   14d98:	00a7c583          	lbu	a1,10(a5)
   14d9c:	fb5ff06f          	j	14d50 <_vfprintf_r+0x236c>
   14da0:	0a714703          	lbu	a4,167(sp)
   14da4:	04812d83          	lw	s11,72(sp)
   14da8:	00000a13          	li	s4,0
   14dac:	00070463          	beqz	a4,14db4 <_vfprintf_r+0x23d0>
   14db0:	8e8fe06f          	j	12e98 <_vfprintf_r+0x4b4>
   14db4:	e5dfd06f          	j	12c10 <_vfprintf_r+0x22c>
   14db8:	01812783          	lw	a5,24(sp)
   14dbc:	01412703          	lw	a4,20(sp)
   14dc0:	1cf74e63          	blt	a4,a5,14f9c <_vfprintf_r+0x25b8>
   14dc4:	01412783          	lw	a5,20(sp)
   14dc8:	001df713          	andi	a4,s11,1
   14dcc:	00078b13          	mv	s6,a5
   14dd0:	00070663          	beqz	a4,14ddc <_vfprintf_r+0x23f8>
   14dd4:	02812703          	lw	a4,40(sp)
   14dd8:	00e78b33          	add	s6,a5,a4
   14ddc:	400dfe13          	andi	t3,s11,1024
   14de0:	000e0663          	beqz	t3,14dec <_vfprintf_r+0x2408>
   14de4:	01412783          	lw	a5,20(sp)
   14de8:	30f04263          	bgtz	a5,150ec <_vfprintf_r+0x2708>
   14dec:	fffb4693          	not	a3,s6
   14df0:	41f6d693          	srai	a3,a3,0x1f
   14df4:	00db7c33          	and	s8,s6,a3
   14df8:	06700893          	li	a7,103
   14dfc:	02012023          	sw	zero,32(sp)
   14e00:	00012e23          	sw	zero,28(sp)
   14e04:	b64ff06f          	j	14168 <_vfprintf_r+0x1784>
   14e08:	0c410613          	addi	a2,sp,196
   14e0c:	00048593          	mv	a1,s1
   14e10:	000b8513          	mv	a0,s7
   14e14:	54c000ef          	jal	15360 <__sprint_r>
   14e18:	00050463          	beqz	a0,14e20 <_vfprintf_r+0x243c>
   14e1c:	a6dfe06f          	j	13888 <_vfprintf_r+0xea4>
   14e20:	000c4583          	lbu	a1,0(s8)
   14e24:	000237b7          	lui	a5,0x23
   14e28:	0cc12603          	lw	a2,204(sp)
   14e2c:	00098693          	mv	a3,s3
   14e30:	bec78893          	addi	a7,a5,-1044 # 22bec <zeroes.0>
   14e34:	01000713          	li	a4,16
   14e38:	00700813          	li	a6,7
   14e3c:	00bc8cb3          	add	s9,s9,a1
   14e40:	855ff06f          	j	14694 <_vfprintf_r+0x1cb0>
   14e44:	00900793          	li	a5,9
   14e48:	c167ea63          	bltu	a5,s6,1425c <_vfprintf_r+0x1878>
   14e4c:	c60ff06f          	j	142ac <_vfprintf_r+0x18c8>
   14e50:	fff00793          	li	a5,-1
   14e54:	00f12223          	sw	a5,4(sp)
   14e58:	f19fd06f          	j	12d70 <_vfprintf_r+0x38c>
   14e5c:	02d00793          	li	a5,45
   14e60:	0af103a3          	sb	a5,167(sp)
   14e64:	02d00713          	li	a4,45
   14e68:	d98ff06f          	j	14400 <_vfprintf_r+0x1a1c>
   14e6c:	0a714703          	lbu	a4,167(sp)
   14e70:	01012623          	sw	a6,12(sp)
   14e74:	02012023          	sw	zero,32(sp)
   14e78:	00012e23          	sw	zero,28(sp)
   14e7c:	00012a23          	sw	zero,20(sp)
   14e80:	000a0c13          	mv	s8,s4
   14e84:	000a0b13          	mv	s6,s4
   14e88:	00000a13          	li	s4,0
   14e8c:	00070463          	beqz	a4,14e94 <_vfprintf_r+0x24b0>
   14e90:	808fe06f          	j	12e98 <_vfprintf_r+0x4b4>
   14e94:	d7dfd06f          	j	12c10 <_vfprintf_r+0x22c>
   14e98:	0c410613          	addi	a2,sp,196
   14e9c:	00048593          	mv	a1,s1
   14ea0:	000b8513          	mv	a0,s7
   14ea4:	4bc000ef          	jal	15360 <__sprint_r>
   14ea8:	00050463          	beqz	a0,14eb0 <_vfprintf_r+0x24cc>
   14eac:	9ddfe06f          	j	13888 <_vfprintf_r+0xea4>
   14eb0:	0ac12583          	lw	a1,172(sp)
   14eb4:	01812783          	lw	a5,24(sp)
   14eb8:	0cc12603          	lw	a2,204(sp)
   14ebc:	00098413          	mv	s0,s3
   14ec0:	40b785b3          	sub	a1,a5,a1
   14ec4:	c99fe06f          	j	13b5c <_vfprintf_r+0x1178>
   14ec8:	000237b7          	lui	a5,0x23
   14ecc:	8bc78d13          	addi	s10,a5,-1860 # 228bc <_luts.0+0x210>
   14ed0:	d40ff06f          	j	14410 <_vfprintf_r+0x1a2c>
   14ed4:	0ac12783          	lw	a5,172(sp)
   14ed8:	00f12a23          	sw	a5,20(sp)
   14edc:	00070793          	mv	a5,a4
   14ee0:	a99ff06f          	j	14978 <_vfprintf_r+0x1f94>
   14ee4:	08010593          	addi	a1,sp,128
   14ee8:	000b0513          	mv	a0,s6
   14eec:	04e12c23          	sw	a4,88(sp)
   14ef0:	04c12a23          	sw	a2,84(sp)
   14ef4:	05112823          	sw	a7,80(sp)
   14ef8:	04d12623          	sw	a3,76(sp)
   14efc:	09f12823          	sw	t6,144(sp)
   14f00:	03f12023          	sw	t6,32(sp)
   14f04:	09e12a23          	sw	t5,148(sp)
   14f08:	01e12e23          	sw	t5,28(sp)
   14f0c:	09d12c23          	sw	t4,152(sp)
   14f10:	01d12c23          	sw	t4,24(sp)
   14f14:	00b12a23          	sw	a1,20(sp)
   14f18:	09812e23          	sw	s8,156(sp)
   14f1c:	08012023          	sw	zero,128(sp)
   14f20:	08012223          	sw	zero,132(sp)
   14f24:	08012423          	sw	zero,136(sp)
   14f28:	08012623          	sw	zero,140(sp)
   14f2c:	5240a0ef          	jal	1f450 <__eqtf2>
   14f30:	01412583          	lw	a1,20(sp)
   14f34:	01812e83          	lw	t4,24(sp)
   14f38:	01c12f03          	lw	t5,28(sp)
   14f3c:	02012f83          	lw	t6,32(sp)
   14f40:	04c12683          	lw	a3,76(sp)
   14f44:	05012883          	lw	a7,80(sp)
   14f48:	05412603          	lw	a2,84(sp)
   14f4c:	05812703          	lw	a4,88(sp)
   14f50:	28051663          	bnez	a0,151dc <_vfprintf_r+0x27f8>
   14f54:	0ac12783          	lw	a5,172(sp)
   14f58:	00f70733          	add	a4,a4,a5
   14f5c:	00f12a23          	sw	a5,20(sp)
   14f60:	41a707b3          	sub	a5,a4,s10
   14f64:	00f12c23          	sw	a5,24(sp)
   14f68:	01412783          	lw	a5,20(sp)
   14f6c:	001df713          	andi	a4,s11,1
   14f70:	01476733          	or	a4,a4,s4
   14f74:	26f05e63          	blez	a5,151f0 <_vfprintf_r+0x280c>
   14f78:	24071063          	bnez	a4,151b8 <_vfprintf_r+0x27d4>
   14f7c:	01412b03          	lw	s6,20(sp)
   14f80:	06600893          	li	a7,102
   14f84:	400dfe13          	andi	t3,s11,1024
   14f88:	160e1463          	bnez	t3,150f0 <_vfprintf_r+0x270c>
   14f8c:	fffb4693          	not	a3,s6
   14f90:	41f6d693          	srai	a3,a3,0x1f
   14f94:	00db7c33          	and	s8,s6,a3
   14f98:	e65ff06f          	j	14dfc <_vfprintf_r+0x2418>
   14f9c:	01812783          	lw	a5,24(sp)
   14fa0:	02812703          	lw	a4,40(sp)
   14fa4:	06700893          	li	a7,103
   14fa8:	00e78b33          	add	s6,a5,a4
   14fac:	01412783          	lw	a5,20(sp)
   14fb0:	fcf04ae3          	bgtz	a5,14f84 <_vfprintf_r+0x25a0>
   14fb4:	40fb0f33          	sub	t5,s6,a5
   14fb8:	001f0b13          	addi	s6,t5,1
   14fbc:	fffb4693          	not	a3,s6
   14fc0:	41f6d693          	srai	a3,a3,0x1f
   14fc4:	00db7c33          	and	s8,s6,a3
   14fc8:	e35ff06f          	j	14dfc <_vfprintf_r+0x2418>
   14fcc:	000d8613          	mv	a2,s11
   14fd0:	b8cfe06f          	j	1335c <_vfprintf_r+0x978>
   14fd4:	00023837          	lui	a6,0x23
   14fd8:	ff000593          	li	a1,-16
   14fdc:	40a00a33          	neg	s4,a0
   14fe0:	bec80813          	addi	a6,a6,-1044 # 22bec <zeroes.0>
   14fe4:	06b55a63          	bge	a0,a1,15058 <_vfprintf_r+0x2674>
   14fe8:	01212a23          	sw	s2,20(sp)
   14fec:	01000b13          	li	s6,16
   14ff0:	00700893          	li	a7,7
   14ff4:	00080913          	mv	s2,a6
   14ff8:	00c0006f          	j	15004 <_vfprintf_r+0x2620>
   14ffc:	ff0a0a13          	addi	s4,s4,-16 # 3ffdfff0 <__BSS_END__+0x3ffbb3d4>
   15000:	054b5863          	bge	s6,s4,15050 <_vfprintf_r+0x266c>
   15004:	01060613          	addi	a2,a2,16
   15008:	00170713          	addi	a4,a4,1
   1500c:	01242023          	sw	s2,0(s0)
   15010:	01642223          	sw	s6,4(s0)
   15014:	0cc12623          	sw	a2,204(sp)
   15018:	0ce12423          	sw	a4,200(sp)
   1501c:	00840413          	addi	s0,s0,8
   15020:	fce8dee3          	bge	a7,a4,14ffc <_vfprintf_r+0x2618>
   15024:	0c410613          	addi	a2,sp,196
   15028:	00048593          	mv	a1,s1
   1502c:	000b8513          	mv	a0,s7
   15030:	330000ef          	jal	15360 <__sprint_r>
   15034:	00050463          	beqz	a0,1503c <_vfprintf_r+0x2658>
   15038:	851fe06f          	j	13888 <_vfprintf_r+0xea4>
   1503c:	0cc12603          	lw	a2,204(sp)
   15040:	0c812703          	lw	a4,200(sp)
   15044:	00098413          	mv	s0,s3
   15048:	00700893          	li	a7,7
   1504c:	fb1ff06f          	j	14ffc <_vfprintf_r+0x2618>
   15050:	00090813          	mv	a6,s2
   15054:	01412903          	lw	s2,20(sp)
   15058:	01460633          	add	a2,a2,s4
   1505c:	00170713          	addi	a4,a4,1
   15060:	01042023          	sw	a6,0(s0)
   15064:	01442223          	sw	s4,4(s0)
   15068:	0cc12623          	sw	a2,204(sp)
   1506c:	0ce12423          	sw	a4,200(sp)
   15070:	00700593          	li	a1,7
   15074:	aee5d063          	bge	a1,a4,14354 <_vfprintf_r+0x1970>
   15078:	0c410613          	addi	a2,sp,196
   1507c:	00048593          	mv	a1,s1
   15080:	000b8513          	mv	a0,s7
   15084:	2dc000ef          	jal	15360 <__sprint_r>
   15088:	00050463          	beqz	a0,15090 <_vfprintf_r+0x26ac>
   1508c:	ffcfe06f          	j	13888 <_vfprintf_r+0xea4>
   15090:	0cc12603          	lw	a2,204(sp)
   15094:	0c812703          	lw	a4,200(sp)
   15098:	00098413          	mv	s0,s3
   1509c:	be8ff06f          	j	14484 <_vfprintf_r+0x1aa0>
   150a0:	0b610693          	addi	a3,sp,182
   150a4:	00061863          	bnez	a2,150b4 <_vfprintf_r+0x26d0>
   150a8:	03000693          	li	a3,48
   150ac:	0ad10b23          	sb	a3,182(sp)
   150b0:	0b710693          	addi	a3,sp,183
   150b4:	19010793          	addi	a5,sp,400
   150b8:	40f68633          	sub	a2,a3,a5
   150bc:	030a0713          	addi	a4,s4,48
   150c0:	0dd60793          	addi	a5,a2,221
   150c4:	00e68023          	sb	a4,0(a3)
   150c8:	02f12e23          	sw	a5,60(sp)
   150cc:	858ff06f          	j	14124 <_vfprintf_r+0x1740>
   150d0:	00012423          	sw	zero,8(sp)
   150d4:	00600a13          	li	s4,6
   150d8:	f21fd06f          	j	12ff8 <_vfprintf_r+0x614>
   150dc:	001df713          	andi	a4,s11,1
   150e0:	00071463          	bnez	a4,150e8 <_vfprintf_r+0x2704>
   150e4:	860ff06f          	j	14144 <_vfprintf_r+0x1760>
   150e8:	854ff06f          	j	1413c <_vfprintf_r+0x1758>
   150ec:	06700893          	li	a7,103
   150f0:	03812603          	lw	a2,56(sp)
   150f4:	0ff00693          	li	a3,255
   150f8:	00064703          	lbu	a4,0(a2)
   150fc:	14d70c63          	beq	a4,a3,15254 <_vfprintf_r+0x2870>
   15100:	01412783          	lw	a5,20(sp)
   15104:	00000513          	li	a0,0
   15108:	00000593          	li	a1,0
   1510c:	00f75e63          	bge	a4,a5,15128 <_vfprintf_r+0x2744>
   15110:	40e787b3          	sub	a5,a5,a4
   15114:	00164703          	lbu	a4,1(a2)
   15118:	04070863          	beqz	a4,15168 <_vfprintf_r+0x2784>
   1511c:	00158593          	addi	a1,a1,1
   15120:	00160613          	addi	a2,a2,1
   15124:	fed714e3          	bne	a4,a3,1510c <_vfprintf_r+0x2728>
   15128:	02c12c23          	sw	a2,56(sp)
   1512c:	00b12e23          	sw	a1,28(sp)
   15130:	02a12023          	sw	a0,32(sp)
   15134:	00f12a23          	sw	a5,20(sp)
   15138:	02012783          	lw	a5,32(sp)
   1513c:	01c12703          	lw	a4,28(sp)
   15140:	04012583          	lw	a1,64(sp)
   15144:	05112623          	sw	a7,76(sp)
   15148:	00e78533          	add	a0,a5,a4
   1514c:	3a40d0ef          	jal	224f0 <__mulsi3>
   15150:	01650b33          	add	s6,a0,s6
   15154:	fffb4693          	not	a3,s6
   15158:	41f6d693          	srai	a3,a3,0x1f
   1515c:	04c12883          	lw	a7,76(sp)
   15160:	00db7c33          	and	s8,s6,a3
   15164:	804ff06f          	j	14168 <_vfprintf_r+0x1784>
   15168:	00064703          	lbu	a4,0(a2)
   1516c:	00150513          	addi	a0,a0,1
   15170:	fb5ff06f          	j	15124 <_vfprintf_r+0x2740>
   15174:	00090c13          	mv	s8,s2
   15178:	001a0693          	addi	a3,s4,1
   1517c:	01c12883          	lw	a7,28(sp)
   15180:	02012d83          	lw	s11,32(sp)
   15184:	03c12c83          	lw	s9,60(sp)
   15188:	04812403          	lw	s0,72(sp)
   1518c:	01812903          	lw	s2,24(sp)
   15190:	04c12b83          	lw	s7,76(sp)
   15194:	05012483          	lw	s1,80(sp)
   15198:	05412d03          	lw	s10,84(sp)
   1519c:	00dc06b3          	add	a3,s8,a3
   151a0:	03000613          	li	a2,48
   151a4:	ba0a48e3          	bltz	s4,14d54 <_vfprintf_r+0x2370>
   151a8:	001c0c13          	addi	s8,s8,1
   151ac:	fecc0fa3          	sb	a2,-1(s8)
   151b0:	ff869ce3          	bne	a3,s8,151a8 <_vfprintf_r+0x27c4>
   151b4:	ba1ff06f          	j	14d54 <_vfprintf_r+0x2370>
   151b8:	02812703          	lw	a4,40(sp)
   151bc:	06600893          	li	a7,102
   151c0:	00ea0f33          	add	t5,s4,a4
   151c4:	00ff0b33          	add	s6,t5,a5
   151c8:	dbdff06f          	j	14f84 <_vfprintf_r+0x25a0>
   151cc:	00023737          	lui	a4,0x23
   151d0:	8c070793          	addi	a5,a4,-1856 # 228c0 <_luts.0+0x214>
   151d4:	00f12a23          	sw	a5,20(sp)
   151d8:	939ff06f          	j	14b10 <_vfprintf_r+0x212c>
   151dc:	00100513          	li	a0,1
   151e0:	40d506b3          	sub	a3,a0,a3
   151e4:	0ad12623          	sw	a3,172(sp)
   151e8:	00d70733          	add	a4,a4,a3
   151ec:	f20ff06f          	j	1490c <_vfprintf_r+0x1f28>
   151f0:	00071a63          	bnez	a4,15204 <_vfprintf_r+0x2820>
   151f4:	00100c13          	li	s8,1
   151f8:	06600893          	li	a7,102
   151fc:	00100b13          	li	s6,1
   15200:	bfdff06f          	j	14dfc <_vfprintf_r+0x2418>
   15204:	02812783          	lw	a5,40(sp)
   15208:	06600893          	li	a7,102
   1520c:	00178f13          	addi	t5,a5,1
   15210:	014f0b33          	add	s6,t5,s4
   15214:	fffb4693          	not	a3,s6
   15218:	41f6d693          	srai	a3,a3,0x1f
   1521c:	00db7c33          	and	s8,s6,a3
   15220:	bddff06f          	j	14dfc <_vfprintf_r+0x2418>
   15224:	00200793          	li	a5,2
   15228:	02f12e23          	sw	a5,60(sp)
   1522c:	ef9fe06f          	j	14124 <_vfprintf_r+0x1740>
   15230:	00c12783          	lw	a5,12(sp)
   15234:	0007aa03          	lw	s4,0(a5)
   15238:	00478793          	addi	a5,a5,4
   1523c:	000a5463          	bgez	s4,15244 <_vfprintf_r+0x2860>
   15240:	fff00a13          	li	s4,-1
   15244:	00194883          	lbu	a7,1(s2)
   15248:	00f12623          	sw	a5,12(sp)
   1524c:	00068913          	mv	s2,a3
   15250:	941fd06f          	j	12b90 <_vfprintf_r+0x1ac>
   15254:	02012023          	sw	zero,32(sp)
   15258:	00012e23          	sw	zero,28(sp)
   1525c:	eddff06f          	j	15138 <_vfprintf_r+0x2754>
   15260:	04500613          	li	a2,69
   15264:	08010593          	addi	a1,sp,128
   15268:	ea4ff06f          	j	1490c <_vfprintf_r+0x1f28>
   1526c:	00c4d783          	lhu	a5,12(s1)
   15270:	0407e793          	ori	a5,a5,64
   15274:	00f49623          	sh	a5,12(s1)
   15278:	ac5fd06f          	j	12d3c <_vfprintf_r+0x358>

0001527c <vfprintf>:
   1527c:	00050793          	mv	a5,a0
   15280:	f0c1a503          	lw	a0,-244(gp) # 248e4 <_impure_ptr>
   15284:	00060693          	mv	a3,a2
   15288:	00058613          	mv	a2,a1
   1528c:	00078593          	mv	a1,a5
   15290:	f54fd06f          	j	129e4 <_vfprintf_r>

00015294 <__sbprintf>:
   15294:	b8010113          	addi	sp,sp,-1152
   15298:	00c59783          	lh	a5,12(a1)
   1529c:	00e5d703          	lhu	a4,14(a1)
   152a0:	46812c23          	sw	s0,1144(sp)
   152a4:	00058413          	mv	s0,a1
   152a8:	000105b7          	lui	a1,0x10
   152ac:	ffd58593          	addi	a1,a1,-3 # fffd <exit-0x97>
   152b0:	06442e03          	lw	t3,100(s0)
   152b4:	01c42303          	lw	t1,28(s0)
   152b8:	02442883          	lw	a7,36(s0)
   152bc:	01071713          	slli	a4,a4,0x10
   152c0:	00b7f7b3          	and	a5,a5,a1
   152c4:	00e7e7b3          	or	a5,a5,a4
   152c8:	40000813          	li	a6,1024
   152cc:	00f12a23          	sw	a5,20(sp)
   152d0:	00810593          	addi	a1,sp,8
   152d4:	07010793          	addi	a5,sp,112
   152d8:	46912a23          	sw	s1,1140(sp)
   152dc:	47212823          	sw	s2,1136(sp)
   152e0:	46112e23          	sw	ra,1148(sp)
   152e4:	00050913          	mv	s2,a0
   152e8:	07c12623          	sw	t3,108(sp)
   152ec:	02612223          	sw	t1,36(sp)
   152f0:	03112623          	sw	a7,44(sp)
   152f4:	00f12423          	sw	a5,8(sp)
   152f8:	00f12c23          	sw	a5,24(sp)
   152fc:	01012823          	sw	a6,16(sp)
   15300:	01012e23          	sw	a6,28(sp)
   15304:	02012023          	sw	zero,32(sp)
   15308:	edcfd0ef          	jal	129e4 <_vfprintf_r>
   1530c:	00050493          	mv	s1,a0
   15310:	02055c63          	bgez	a0,15348 <__sbprintf+0xb4>
   15314:	01415783          	lhu	a5,20(sp)
   15318:	0407f793          	andi	a5,a5,64
   1531c:	00078863          	beqz	a5,1532c <__sbprintf+0x98>
   15320:	00c45783          	lhu	a5,12(s0)
   15324:	0407e793          	ori	a5,a5,64
   15328:	00f41623          	sh	a5,12(s0)
   1532c:	47c12083          	lw	ra,1148(sp)
   15330:	47812403          	lw	s0,1144(sp)
   15334:	47012903          	lw	s2,1136(sp)
   15338:	00048513          	mv	a0,s1
   1533c:	47412483          	lw	s1,1140(sp)
   15340:	48010113          	addi	sp,sp,1152
   15344:	00008067          	ret
   15348:	00810593          	addi	a1,sp,8
   1534c:	00090513          	mv	a0,s2
   15350:	3bc000ef          	jal	1570c <_fflush_r>
   15354:	fc0500e3          	beqz	a0,15314 <__sbprintf+0x80>
   15358:	fff00493          	li	s1,-1
   1535c:	fb9ff06f          	j	15314 <__sbprintf+0x80>

00015360 <__sprint_r>:
   15360:	00862783          	lw	a5,8(a2)
   15364:	ff010113          	addi	sp,sp,-16
   15368:	00812423          	sw	s0,8(sp)
   1536c:	00112623          	sw	ra,12(sp)
   15370:	00060413          	mv	s0,a2
   15374:	00079e63          	bnez	a5,15390 <__sprint_r+0x30>
   15378:	00c12083          	lw	ra,12(sp)
   1537c:	00042223          	sw	zero,4(s0)
   15380:	00812403          	lw	s0,8(sp)
   15384:	00000513          	li	a0,0
   15388:	01010113          	addi	sp,sp,16
   1538c:	00008067          	ret
   15390:	460000ef          	jal	157f0 <__sfvwrite_r>
   15394:	00c12083          	lw	ra,12(sp)
   15398:	00042423          	sw	zero,8(s0)
   1539c:	00042223          	sw	zero,4(s0)
   153a0:	00812403          	lw	s0,8(sp)
   153a4:	01010113          	addi	sp,sp,16
   153a8:	00008067          	ret

000153ac <_fclose_r>:
   153ac:	ff010113          	addi	sp,sp,-16
   153b0:	00112623          	sw	ra,12(sp)
   153b4:	01212023          	sw	s2,0(sp)
   153b8:	02058863          	beqz	a1,153e8 <_fclose_r+0x3c>
   153bc:	00812423          	sw	s0,8(sp)
   153c0:	00912223          	sw	s1,4(sp)
   153c4:	00058413          	mv	s0,a1
   153c8:	00050493          	mv	s1,a0
   153cc:	00050663          	beqz	a0,153d8 <_fclose_r+0x2c>
   153d0:	03452783          	lw	a5,52(a0)
   153d4:	0c078c63          	beqz	a5,154ac <_fclose_r+0x100>
   153d8:	00c41783          	lh	a5,12(s0)
   153dc:	02079263          	bnez	a5,15400 <_fclose_r+0x54>
   153e0:	00812403          	lw	s0,8(sp)
   153e4:	00412483          	lw	s1,4(sp)
   153e8:	00c12083          	lw	ra,12(sp)
   153ec:	00000913          	li	s2,0
   153f0:	00090513          	mv	a0,s2
   153f4:	00012903          	lw	s2,0(sp)
   153f8:	01010113          	addi	sp,sp,16
   153fc:	00008067          	ret
   15400:	00040593          	mv	a1,s0
   15404:	00048513          	mv	a0,s1
   15408:	0b8000ef          	jal	154c0 <__sflush_r>
   1540c:	02c42783          	lw	a5,44(s0)
   15410:	00050913          	mv	s2,a0
   15414:	00078a63          	beqz	a5,15428 <_fclose_r+0x7c>
   15418:	01c42583          	lw	a1,28(s0)
   1541c:	00048513          	mv	a0,s1
   15420:	000780e7          	jalr	a5
   15424:	06054463          	bltz	a0,1548c <_fclose_r+0xe0>
   15428:	00c45783          	lhu	a5,12(s0)
   1542c:	0807f793          	andi	a5,a5,128
   15430:	06079663          	bnez	a5,1549c <_fclose_r+0xf0>
   15434:	03042583          	lw	a1,48(s0)
   15438:	00058c63          	beqz	a1,15450 <_fclose_r+0xa4>
   1543c:	04040793          	addi	a5,s0,64
   15440:	00f58663          	beq	a1,a5,1544c <_fclose_r+0xa0>
   15444:	00048513          	mv	a0,s1
   15448:	ad5fc0ef          	jal	11f1c <_free_r>
   1544c:	02042823          	sw	zero,48(s0)
   15450:	04442583          	lw	a1,68(s0)
   15454:	00058863          	beqz	a1,15464 <_fclose_r+0xb8>
   15458:	00048513          	mv	a0,s1
   1545c:	ac1fc0ef          	jal	11f1c <_free_r>
   15460:	04042223          	sw	zero,68(s0)
   15464:	fd9fb0ef          	jal	1143c <__sfp_lock_acquire>
   15468:	00041623          	sh	zero,12(s0)
   1546c:	fd5fb0ef          	jal	11440 <__sfp_lock_release>
   15470:	00c12083          	lw	ra,12(sp)
   15474:	00812403          	lw	s0,8(sp)
   15478:	00412483          	lw	s1,4(sp)
   1547c:	00090513          	mv	a0,s2
   15480:	00012903          	lw	s2,0(sp)
   15484:	01010113          	addi	sp,sp,16
   15488:	00008067          	ret
   1548c:	00c45783          	lhu	a5,12(s0)
   15490:	fff00913          	li	s2,-1
   15494:	0807f793          	andi	a5,a5,128
   15498:	f8078ee3          	beqz	a5,15434 <_fclose_r+0x88>
   1549c:	01042583          	lw	a1,16(s0)
   154a0:	00048513          	mv	a0,s1
   154a4:	a79fc0ef          	jal	11f1c <_free_r>
   154a8:	f8dff06f          	j	15434 <_fclose_r+0x88>
   154ac:	f6dfb0ef          	jal	11418 <__sinit>
   154b0:	f29ff06f          	j	153d8 <_fclose_r+0x2c>

000154b4 <fclose>:
   154b4:	00050593          	mv	a1,a0
   154b8:	f0c1a503          	lw	a0,-244(gp) # 248e4 <_impure_ptr>
   154bc:	ef1ff06f          	j	153ac <_fclose_r>

000154c0 <__sflush_r>:
   154c0:	00c59703          	lh	a4,12(a1)
   154c4:	fe010113          	addi	sp,sp,-32
   154c8:	00812c23          	sw	s0,24(sp)
   154cc:	01312623          	sw	s3,12(sp)
   154d0:	00112e23          	sw	ra,28(sp)
   154d4:	00877793          	andi	a5,a4,8
   154d8:	00058413          	mv	s0,a1
   154dc:	00050993          	mv	s3,a0
   154e0:	12079063          	bnez	a5,15600 <__sflush_r+0x140>
   154e4:	000017b7          	lui	a5,0x1
   154e8:	80078793          	addi	a5,a5,-2048 # 800 <exit-0xf894>
   154ec:	0045a683          	lw	a3,4(a1)
   154f0:	00f767b3          	or	a5,a4,a5
   154f4:	00f59623          	sh	a5,12(a1)
   154f8:	18d05263          	blez	a3,1567c <__sflush_r+0x1bc>
   154fc:	02842803          	lw	a6,40(s0)
   15500:	0e080463          	beqz	a6,155e8 <__sflush_r+0x128>
   15504:	00912a23          	sw	s1,20(sp)
   15508:	01371693          	slli	a3,a4,0x13
   1550c:	0009a483          	lw	s1,0(s3)
   15510:	0009a023          	sw	zero,0(s3)
   15514:	01c42583          	lw	a1,28(s0)
   15518:	1606ce63          	bltz	a3,15694 <__sflush_r+0x1d4>
   1551c:	00000613          	li	a2,0
   15520:	00100693          	li	a3,1
   15524:	00098513          	mv	a0,s3
   15528:	000800e7          	jalr	a6
   1552c:	fff00793          	li	a5,-1
   15530:	00050613          	mv	a2,a0
   15534:	1af50463          	beq	a0,a5,156dc <__sflush_r+0x21c>
   15538:	00c41783          	lh	a5,12(s0)
   1553c:	02842803          	lw	a6,40(s0)
   15540:	01c42583          	lw	a1,28(s0)
   15544:	0047f793          	andi	a5,a5,4
   15548:	00078e63          	beqz	a5,15564 <__sflush_r+0xa4>
   1554c:	00442703          	lw	a4,4(s0)
   15550:	03042783          	lw	a5,48(s0)
   15554:	40e60633          	sub	a2,a2,a4
   15558:	00078663          	beqz	a5,15564 <__sflush_r+0xa4>
   1555c:	03c42783          	lw	a5,60(s0)
   15560:	40f60633          	sub	a2,a2,a5
   15564:	00000693          	li	a3,0
   15568:	00098513          	mv	a0,s3
   1556c:	000800e7          	jalr	a6
   15570:	fff00793          	li	a5,-1
   15574:	12f51463          	bne	a0,a5,1569c <__sflush_r+0x1dc>
   15578:	0009a683          	lw	a3,0(s3)
   1557c:	01d00793          	li	a5,29
   15580:	00c41703          	lh	a4,12(s0)
   15584:	16d7ea63          	bltu	a5,a3,156f8 <__sflush_r+0x238>
   15588:	204007b7          	lui	a5,0x20400
   1558c:	00178793          	addi	a5,a5,1 # 20400001 <__BSS_END__+0x203db3e5>
   15590:	00d7d7b3          	srl	a5,a5,a3
   15594:	0017f793          	andi	a5,a5,1
   15598:	16078063          	beqz	a5,156f8 <__sflush_r+0x238>
   1559c:	01042603          	lw	a2,16(s0)
   155a0:	fffff7b7          	lui	a5,0xfffff
   155a4:	7ff78793          	addi	a5,a5,2047 # fffff7ff <__BSS_END__+0xfffdabe3>
   155a8:	00f777b3          	and	a5,a4,a5
   155ac:	00f41623          	sh	a5,12(s0)
   155b0:	00042223          	sw	zero,4(s0)
   155b4:	00c42023          	sw	a2,0(s0)
   155b8:	01371793          	slli	a5,a4,0x13
   155bc:	0007d463          	bgez	a5,155c4 <__sflush_r+0x104>
   155c0:	10068263          	beqz	a3,156c4 <__sflush_r+0x204>
   155c4:	03042583          	lw	a1,48(s0)
   155c8:	0099a023          	sw	s1,0(s3)
